
sobel.elf:     file format elf32-littlenios2
sobel.elf
architecture: nios2:r1, flags 0x00000112:
EXEC_P, HAS_SYMS, D_PAGED
start address 0x0000018c

Program Header:
    LOAD off    0x00001000 vaddr 0x00000000 paddr 0x00000000 align 2**12
         filesz 0x00000020 memsz 0x00000020 flags r-x
    LOAD off    0x00001020 vaddr 0x00000020 paddr 0x00000020 align 2**12
         filesz 0x000108e0 memsz 0x000108e0 flags r-x
    LOAD off    0x00011900 vaddr 0x00010900 paddr 0x000123f4 align 2**12
         filesz 0x00001af4 memsz 0x00001af4 flags rw-
    LOAD off    0x00013ee8 vaddr 0x00013ee8 paddr 0x00013ee8 align 2**12
         filesz 0x00000000 memsz 0x00000190 flags rw-

Sections:
Idx Name          Size      VMA       LMA       File off  Algn
  0 .entry        00000020  00000000  00000000  00001000  2**5
                  CONTENTS, ALLOC, LOAD, READONLY, CODE
  1 .exceptions   0000016c  00000020  00000020  00001020  2**2
                  CONTENTS, ALLOC, LOAD, READONLY, CODE
  2 .text         0000ffec  0000018c  0000018c  0000118c  2**2
                  CONTENTS, ALLOC, LOAD, READONLY, CODE
  3 .rodata       00000788  00010178  00010178  00011178  2**2
                  CONTENTS, ALLOC, LOAD, READONLY, DATA
  4 .rwdata       00001af4  00010900  000123f4  00011900  2**2
                  CONTENTS, ALLOC, LOAD, DATA, SMALL_DATA
  5 .bss          00000190  00013ee8  00013ee8  00013ee8  2**2
                  ALLOC, SMALL_DATA
  6 .sdram_ctrl   00000000  00014078  00014078  000133f4  2**0
                  CONTENTS
  7 .comment      00000023  00000000  00000000  000133f4  2**0
                  CONTENTS, READONLY
  8 .debug_aranges 000010d8  00000000  00000000  00013418  2**3
                  CONTENTS, READONLY, DEBUGGING
  9 .debug_info   00028960  00000000  00000000  000144f0  2**0
                  CONTENTS, READONLY, DEBUGGING
 10 .debug_abbrev 0000a802  00000000  00000000  0003ce50  2**0
                  CONTENTS, READONLY, DEBUGGING
 11 .debug_line   0000cca2  00000000  00000000  00047652  2**0
                  CONTENTS, READONLY, DEBUGGING
 12 .debug_frame  000022ac  00000000  00000000  000542f4  2**2
                  CONTENTS, READONLY, DEBUGGING
 13 .debug_str    00003ea7  00000000  00000000  000565a0  2**0
                  CONTENTS, READONLY, DEBUGGING
 14 .debug_loc    0001c180  00000000  00000000  0005a447  2**0
                  CONTENTS, READONLY, DEBUGGING
 15 .debug_alt_sim_info 00000060  00000000  00000000  000765c8  2**2
                  CONTENTS, READONLY, DEBUGGING
 16 .debug_ranges 00001c38  00000000  00000000  00076628  2**3
                  CONTENTS, READONLY, DEBUGGING
 17 .thread_model 00000003  00000000  00000000  0007bca2  2**0
                  CONTENTS, READONLY
 18 .cpu          0000000c  00000000  00000000  0007bca5  2**0
                  CONTENTS, READONLY
 19 .qsys         00000001  00000000  00000000  0007bcb1  2**0
                  CONTENTS, READONLY
 20 .simulation_enabled 00000001  00000000  00000000  0007bcb2  2**0
                  CONTENTS, READONLY
 21 .sysid_hash   00000004  00000000  00000000  0007bcb3  2**0
                  CONTENTS, READONLY
 22 .sysid_base   00000004  00000000  00000000  0007bcb7  2**0
                  CONTENTS, READONLY
 23 .sysid_time   00000004  00000000  00000000  0007bcbb  2**0
                  CONTENTS, READONLY
 24 .stderr_dev   00000009  00000000  00000000  0007bcbf  2**0
                  CONTENTS, READONLY
 25 .stdin_dev    00000009  00000000  00000000  0007bcc8  2**0
                  CONTENTS, READONLY
 26 .stdout_dev   00000009  00000000  00000000  0007bcd1  2**0
                  CONTENTS, READONLY
 27 .sopc_system_name 0000000b  00000000  00000000  0007bcda  2**0
                  CONTENTS, READONLY
 28 .quartus_project_dir 0000004e  00000000  00000000  0007bce5  2**0
                  CONTENTS, READONLY
 29 .jdi          00005ad8  00000000  00000000  0007bd33  2**0
                  CONTENTS, READONLY
 30 .sopcinfo     000786ea  00000000  00000000  0008180b  2**0
                  CONTENTS, READONLY
SYMBOL TABLE:
00000000 l    d  .entry	00000000 .entry
00000020 l    d  .exceptions	00000000 .exceptions
0000018c l    d  .text	00000000 .text
00010178 l    d  .rodata	00000000 .rodata
00010900 l    d  .rwdata	00000000 .rwdata
00013ee8 l    d  .bss	00000000 .bss
00014078 l    d  .sdram_ctrl	00000000 .sdram_ctrl
00000000 l    d  .comment	00000000 .comment
00000000 l    d  .debug_aranges	00000000 .debug_aranges
00000000 l    d  .debug_info	00000000 .debug_info
00000000 l    d  .debug_abbrev	00000000 .debug_abbrev
00000000 l    d  .debug_line	00000000 .debug_line
00000000 l    d  .debug_frame	00000000 .debug_frame
00000000 l    d  .debug_str	00000000 .debug_str
00000000 l    d  .debug_loc	00000000 .debug_loc
00000000 l    d  .debug_alt_sim_info	00000000 .debug_alt_sim_info
00000000 l    d  .debug_ranges	00000000 .debug_ranges
00000000 l    df *ABS*	00000000 C:/Users/nicis/HESSO/MSc_ElE/TSM_EmbHardw/Labs/Lab_04/mse_demo/software/sobel_bsp//obj/HAL/src/crt0.o
000001d4 l       .text	00000000 alt_after_alt_main
00000000 l    df *ABS*	00000000 alt_irq_handler.c
00000000 l    df *ABS*	00000000 alt_instruction_exception_entry.c
00000000 l    df *ABS*	00000000 camera.c
00000000 l    df *ABS*	00000000 dipswitch.c
00000000 l    df *ABS*	00000000 grayscale.c
00000000 l    df *ABS*	00000000 i2c.c
00000000 l    df *ABS*	00000000 lcd_simple.c
00000000 l    df *ABS*	00000000 main.c
00000000 l    df *ABS*	00000000 sobel.c
00000000 l    df *ABS*	00000000 vga.c
00000000 l    df *ABS*	00000000 malloc.c
00000000 l    df *ABS*	00000000 mallocr.c
00000000 l    df *ABS*	00000000 printf.c
00000000 l    df *ABS*	00000000 puts.c
00000000 l    df *ABS*	00000000 sbrkr.c
00000000 l    df *ABS*	00000000 strlen.c
00000000 l    df *ABS*	00000000 vfprintf.c
0001065e l     O .rodata	00000010 zeroes.4404
000048f8 l     F .text	000000bc __sbprintf
0001066e l     O .rodata	00000010 blanks.4403
00000000 l    df *ABS*	00000000 wsetup.c
00000000 l    df *ABS*	00000000 dtoa.c
00004b08 l     F .text	00000200 quorem
00000000 l    df *ABS*	00000000 fflush.c
00000000 l    df *ABS*	00000000 findfp.c
00006638 l     F .text	00000008 __fp_unlock
0000664c l     F .text	0000019c __sinit.part.1
000067e8 l     F .text	00000008 __fp_lock
00000000 l    df *ABS*	00000000 mallocr.c
00000000 l    df *ABS*	00000000 fvwrite.c
00000000 l    df *ABS*	00000000 fwalk.c
00000000 l    df *ABS*	00000000 impure.c
00010d08 l     O .rwdata	00000424 impure_data
00000000 l    df *ABS*	00000000 int_errno.c
00000000 l    df *ABS*	00000000 locale.c
0001114c l     O .rwdata	00000020 lc_ctype_charset
0001112c l     O .rwdata	00000020 lc_message_charset
0001116c l     O .rwdata	00000038 lconv
00000000 l    df *ABS*	00000000 makebuf.c
00000000 l    df *ABS*	00000000 memchr.c
00000000 l    df *ABS*	00000000 memcpy.c
00000000 l    df *ABS*	00000000 memmove.c
00000000 l    df *ABS*	00000000 memset.c
00000000 l    df *ABS*	00000000 mprec.c
000106a0 l     O .rodata	0000000c p05.2768
00000000 l    df *ABS*	00000000 mallocr.c
00000000 l    df *ABS*	00000000 s_fpclassify.c
00000000 l    df *ABS*	00000000 stdio.c
00000000 l    df *ABS*	00000000 strcmp.c
00000000 l    df *ABS*	00000000 vfprintf.c
00009384 l     F .text	000000fc __sprint_r.part.0
000107d4 l     O .rodata	00000010 blanks.4348
000107c4 l     O .rodata	00000010 zeroes.4349
0000a910 l     F .text	000000bc __sbprintf
00000000 l    df *ABS*	00000000 writer.c
00000000 l    df *ABS*	00000000 closer.c
00000000 l    df *ABS*	00000000 mallocr.c
00000000 l    df *ABS*	00000000 fclose.c
00000000 l    df *ABS*	00000000 fputwc.c
00000000 l    df *ABS*	00000000 fstatr.c
00000000 l    df *ABS*	00000000 isattyr.c
00000000 l    df *ABS*	00000000 lseekr.c
00000000 l    df *ABS*	00000000 readr.c
00000000 l    df *ABS*	00000000 wbuf.c
00000000 l    df *ABS*	00000000 wcrtomb.c
00000000 l    df *ABS*	00000000 wctomb_r.c
00000000 l    df *ABS*	00000000 libgcc2.c
00000000 l    df *ABS*	00000000 libgcc2.c
00000000 l    df *ABS*	00000000 lib2-divmod.c
00000000 l    df *ABS*	00000000 adddf3.c
00000000 l    df *ABS*	00000000 divdf3.c
00000000 l    df *ABS*	00000000 eqdf2.c
00000000 l    df *ABS*	00000000 gedf2.c
00000000 l    df *ABS*	00000000 ledf2.c
00000000 l    df *ABS*	00000000 muldf3.c
00000000 l    df *ABS*	00000000 subdf3.c
00000000 l    df *ABS*	00000000 fixdfsi.c
00000000 l    df *ABS*	00000000 floatsidf.c
00000000 l    df *ABS*	00000000 floatunsidf.c
00000000 l    df *ABS*	00000000 libgcc2.c
00000000 l    df *ABS*	00000000 libgcc2.c
00000000 l    df *ABS*	00000000 alt_close.c
00000000 l    df *ABS*	00000000 alt_dev.c
0000e688 l     F .text	00000008 alt_dev_null_write
00000000 l    df *ABS*	00000000 alt_errno.c
00000000 l    df *ABS*	00000000 alt_fstat.c
00000000 l    df *ABS*	00000000 alt_isatty.c
00000000 l    df *ABS*	00000000 alt_load.c
00000000 l    df *ABS*	00000000 alt_lseek.c
00000000 l    df *ABS*	00000000 alt_main.c
00000000 l    df *ABS*	00000000 alt_malloc_lock.c
00000000 l    df *ABS*	00000000 alt_read.c
00000000 l    df *ABS*	00000000 alt_release_fd.c
00000000 l    df *ABS*	00000000 alt_sbrk.c
000123e4 l     O .rwdata	00000004 heap_end
00000000 l    df *ABS*	00000000 alt_uncached_free.c
00000000 l    df *ABS*	00000000 alt_uncached_malloc.c
00000000 l    df *ABS*	00000000 alt_usleep.c
00000000 l    df *ABS*	00000000 alt_write.c
00000000 l    df *ABS*	00000000 alt_sys_init.c
0001134c l     O .rwdata	00001060 jtag_uart
00000000 l    df *ABS*	00000000 altera_avalon_jtag_uart_fd.c
00000000 l    df *ABS*	00000000 altera_avalon_jtag_uart_init.c
0000ec70 l     F .text	0000004c altera_avalon_jtag_uart_timeout
0000ecbc l     F .text	00000108 altera_avalon_jtag_uart_irq
00000000 l    df *ABS*	00000000 altera_avalon_jtag_uart_ioctl.c
00000000 l    df *ABS*	00000000 altera_avalon_jtag_uart_read.c
00000000 l    df *ABS*	00000000 altera_avalon_jtag_uart_write.c
00000000 l    df *ABS*	00000000 altera_avalon_timer_sc.c
0000f1f0 l     F .text	0000003c alt_avalon_timer_sc_irq
00000000 l    df *ABS*	00000000 altera_avalon_timer_ts.c
00000000 l    df *ABS*	00000000 altera_avalon_timer_vars.c
00000000 l    df *ABS*	00000000 alt_alarm_start.c
00000000 l    df *ABS*	00000000 alt_busy_sleep.c
00000000 l    df *ABS*	00000000 alt_dcache_flush.c
00000000 l    df *ABS*	00000000 alt_dcache_flush_all.c
00000000 l    df *ABS*	00000000 alt_dev_llist_insert.c
00000000 l    df *ABS*	00000000 alt_do_ctors.c
00000000 l    df *ABS*	00000000 alt_do_dtors.c
00000000 l    df *ABS*	00000000 alt_icache_flush_all.c
00000000 l    df *ABS*	00000000 alt_iic.c
00000000 l    df *ABS*	00000000 alt_iic_isr_register.c
00000000 l    df *ABS*	00000000 alt_io_redirect.c
00000000 l    df *ABS*	00000000 alt_irq_vars.c
00000000 l    df *ABS*	00000000 alt_open.c
00000000 l    df *ABS*	00000000 alt_tick.c
00000000 l    df *ABS*	00000000 altera_nios2_gen2_irq.c
00000000 l    df *ABS*	00000000 alt_find_dev.c
00000000 l    df *ABS*	00000000 alt_find_file.c
00000000 l    df *ABS*	00000000 alt_get_fd.c
00000000 l    df *ABS*	00000000 alt_icache_flush.c
00000000 l    df *ABS*	00000000 atexit.c
00000000 l    df *ABS*	00000000 exit.c
00000000 l    df *ABS*	00000000 malign.c
00000000 l    df *ABS*	00000000 mallocr.c
00000000 l    df *ABS*	00000000 memcmp.c
00000000 l    df *ABS*	00000000 __atexit.c
00000000 l    df *ABS*	00000000 __call_atexit.c
00000000 l    df *ABS*	00000000 alt_exit.c
00013f4c g     O .bss	00000004 alt_instruction_exception_handler
00008a1c g     F .text	00000074 _mprec_log10
00008b08 g     F .text	0000008c __any_on
0000aeac g     F .text	00000054 _isatty_r
000106ac g     O .rodata	00000028 __mprec_tinytens
0000e8d4 g     F .text	00000060 alt_main
00002524 g     F .text	000000c0 _puts_r
00013f78 g     O .bss	00000100 alt_irq
0000af00 g     F .text	00000060 _lseek_r
00010603 g     O .rodata	00000009 gy_array
000123f4 g       *ABS*	00000000 __flash_rwdata_start
0000d0f8 g     F .text	00000088 .hidden __eqdf2
00014078 g       *ABS*	00000000 __alt_heap_start
000024e8 g     F .text	0000003c printf
0000b118 g     F .text	0000009c _wcrtomb_r
00009244 g     F .text	0000005c __sseek
00006988 g     F .text	00000010 __sinit
0000afc0 g     F .text	00000140 __swbuf_r
00007450 g     F .text	0000007c _setlocale_r
000067f0 g     F .text	00000068 __sfmoreglue
0000e938 g     F .text	00000004 __malloc_unlock
0000090c g     F .text	00000014 LCD_Write_Command
00013ef8 g     O .bss	00000004 sobel_width
00013f38 g     O .bss	00000004 altera_avalon_timer_ts_freq
00007914 g     F .text	0000015c memmove
00000920 g     F .text	00000014 LCD_Write_Data
00006970 g     F .text	00000018 _cleanup
00007b98 g     F .text	000000a8 _Balloc
0000d180 g     F .text	000000dc .hidden __gtdf2
0000fa14 g     F .text	00000008 altera_nios2_gen2_irq_init
00000000 g     F .entry	0000001c __reset
00000020 g       *ABS*	00000000 __flash_exceptions_start
000004f0 g     F .text	00000024 cam_get_xsize
0000ae50 g     F .text	0000005c _fstat_r
00013f1c g     O .bss	00000004 errno
000091c0 g     F .text	00000008 __seofread
00013f30 g     O .bss	00000004 alt_argv
0001a3ac g       *ABS*	00000000 _gp
0000eae0 g     F .text	00000004 usleep
0000ea84 g     F .text	0000005c alt_uncached_malloc
000005b0 g     F .text	00000074 cam_set_image_pointer
000111a4 g     O .rwdata	00000180 alt_fd_list
00001c64 g     F .text	00000010 vga_set_pointer
0000fa1c g     F .text	00000078 alt_find_dev
000077cc g     F .text	00000148 memcpy
00006640 g     F .text	0000000c _cleanup_r
0000e3e4 g     F .text	000000dc .hidden __floatsidf
0000f670 g     F .text	00000104 alt_io_redirect
0000d25c g     F .text	000000f4 .hidden __ltdf2
00010178 g       *ABS*	00000000 __DTOR_END__
000025e4 g     F .text	00000014 puts
0000fbe0 g     F .text	00000074 alt_exception_cause_generated_bad_addr
000090f8 g     F .text	00000074 __fpclassifyd
00008978 g     F .text	000000a4 __ratio
0000a8f4 g     F .text	0000001c __vfiprintf_internal
0000eefc g     F .text	00000154 altera_avalon_jtag_uart_read
00001c84 g     F .text	00000014 malloc
000024b8 g     F .text	00000030 _printf_r
00000760 g     F .text	00000008 get_grayscale_picture
0000bea8 g     F .text	00000064 .hidden __udivsi3
000101d8 g     O .rodata	00000128 lens_roll_off_tbl
000001d8 g     F .text	00000318 init_camera
0000e708 g     F .text	00000084 isatty
000106fc g     O .rodata	000000c8 __mprec_tens
000074cc g     F .text	0000000c __locale_charset
0000fb90 g     F .text	00000050 alt_icache_flush
00013f18 g     O .bss	00000004 __malloc_top_pad
000123c4 g     O .rwdata	00000004 __mb_cur_max
000074fc g     F .text	0000000c _localeconv_r
0000146c g     F .text	00000140 sobel_x
00007fa4 g     F .text	0000003c __i2b
00006e0c g     F .text	000004bc __sfvwrite_r
00000934 g     F .text	00000414 init_LCD
000025f8 g     F .text	00000054 _sbrk_r
000123ac g     O .rwdata	00000004 pgy_array
00000538 g     F .text	00000078 cam_get_profiling
0000af60 g     F .text	00000060 _read_r
0000f3e4 g     F .text	00000040 alt_dcache_flush
00013efc g     O .bss	00000004 sobel_result
000123cc g     O .rwdata	00000004 alt_max_fd
0000ab44 g     F .text	000000f0 _fclose_r
00006608 g     F .text	00000030 fflush
00013f14 g     O .bss	00000004 __malloc_max_sbrked_mem
00013ef0 g     O .bss	00000004 grayscale_array
0000bf64 g     F .text	000008ac .hidden __adddf3
00000514 g     F .text	00000024 cam_get_ysize
00008720 g     F .text	0000010c __b2d
0000b878 g     F .text	00000538 .hidden __umoddi3
0000e858 g     F .text	0000007c lseek
00000828 g     F .text	0000008c i2c_short_read
000123bc g     O .rwdata	00000004 _global_impure_ptr
00008b94 g     F .text	00000564 _realloc_r
00014078 g       *ABS*	00000000 __bss_end
0000f608 g     F .text	00000068 alt_iic_isr_register
0000f920 g     F .text	000000f4 alt_tick
0000b300 g     F .text	00000578 .hidden __udivdi3
0000adac g     F .text	00000024 _fputwc_r
000106d4 g     O .rodata	00000028 __mprec_bigtens
00007d88 g     F .text	00000104 __s2b
0000e4c0 g     F .text	000000a8 .hidden __floatunsidf
00008460 g     F .text	00000060 __mcmp
000069a8 g     F .text	00000018 __fp_lock_all
0000f5f0 g     F .text	00000018 alt_ic_irq_enabled
00013ee8 g     O .bss	00000004 grayscape_height
0000f8ec g     F .text	00000034 alt_alarm_stop
00013f40 g     O .bss	00000004 alt_irq_active
000000fc g     F .exceptions	00000064 alt_irq_handler
00011324 g     O .rwdata	00000028 alt_dev_null
00000dd4 g     F .text	00000078 transfer_LCD_with_dma
00001a44 g     F .text	00000210 sobel_complete
0000f424 g     F .text	00000018 alt_dcache_flush_all
00007e8c g     F .text	00000068 __hi0bits
0000e364 g     F .text	00000080 .hidden __fixdfsi
000123f4 g       *ABS*	00000000 __ram_rwdata_end
000123d0 g     O .rwdata	00000008 alt_dev_list
0000eae4 g     F .text	000000c4 write
0000f2e4 g     F .text	00000008 alt_timestamp_freq
00010900 g       *ABS*	00000000 __ram_rodata_end
0000e690 g     F .text	00000078 fstat
0000d25c g     F .text	000000f4 .hidden __ledf2
000081d8 g     F .text	00000140 __pow5mult
00009498 g     F .text	0000145c ___vfiprintf_internal_r
00013f28 g     O .bss	00000004 __nlocale_changed
0000bf0c g     F .text	00000058 .hidden __umodsi3
00001c54 g     F .text	00000008 GetSobel_rgb
00014078 g       *ABS*	00000000 end
00001c5c g     F .text	00000008 GetSobelResult
00000648 g     F .text	00000020 take_picture_blocking
000006a8 g     F .text	00000014 DIPSW_get_value
00001840 g     F .text	00000168 sobel_y_with_rgb
0000edc4 g     F .text	00000078 altera_avalon_jtag_uart_init
00000160 g     F .exceptions	0000002c alt_instruction_exception_entry
00000638 g     F .text	00000010 current_image_pointer
00010178 g       *ABS*	00000000 __CTOR_LIST__
01000000 g       *ABS*	00000000 __alt_stack_pointer
0000f22c g     F .text	00000048 alt_avalon_timer_sc_init
0000e568 g     F .text	00000064 .hidden __clzsi2
0000f050 g     F .text	000001a0 altera_avalon_jtag_uart_write
00006998 g     F .text	00000004 __sfp_lock_acquire
000076e8 g     F .text	000000e4 memchr
000026e4 g     F .text	000021f8 ___vfprintf_internal_r
00006afc g     F .text	00000310 _free_r
000074d8 g     F .text	00000010 __locale_mb_cur_max
00001728 g     F .text	00000118 sobel_y
00010300 g     O .rodata	00000140 noise_reduction_reg_settings_array
0000ffe4 g     F .text	00000180 __call_exitprocs
00013f24 g     O .bss	00000004 __mlocale_changed
000123b4 g     O .rwdata	00000004 __malloc_sbrk_base
0000018c g     F .text	0000004c _start
00013f48 g     O .bss	00000004 _alt_tick_rate
00008318 g     F .text	00000148 __lshift
00013f44 g     O .bss	00000004 _alt_nticks
0000e93c g     F .text	000000c8 read
0000ebc8 g     F .text	0000006c alt_sys_init
000015ac g     F .text	0000017c sobel_x_with_rgb
0000fecc g     F .text	00000118 __register_exitproc
00007fe0 g     F .text	000001f8 __multiply
0000ee3c g     F .text	0000004c altera_avalon_jtag_uart_close
00010900 g       *ABS*	00000000 __ram_rwdata_start
00010178 g       *ABS*	00000000 __ram_rodata_start
00013f50 g     O .bss	00000028 __malloc_current_mallinfo
0000882c g     F .text	0000014c __d2b
00013f00 g     O .bss	00000004 sobel_height
00000668 g     F .text	00000014 enable_continues_mode
0000ec34 g     F .text	00000010 altera_avalon_jtag_uart_read_fd
000012cc g     F .text	000000e4 init_sobel_arrays
0000fb40 g     F .text	00000050 alt_get_fd
0000f36c g     F .text	00000078 alt_busy_sleep
00000000 g       *ABS*	00000000 __alt_mem_sdram_ctrl
0000aa2c g     F .text	00000054 _close_r
0000fe50 g     F .text	0000007c memcmp
0000ec54 g     F .text	00000010 altera_avalon_jtag_uart_close_fd
00014078 g       *ABS*	00000000 __alt_stack_base
0000ec64 g     F .text	0000000c altera_avalon_jtag_uart_ioctl_fd
000049b4 g     F .text	00000154 __swsetup_r
0000c810 g     F .text	000008e8 .hidden __divdf3
00006858 g     F .text	00000118 __sfp
00008a90 g     F .text	00000078 __copybits
00010900 g     O .rwdata	00000408 __malloc_av_
000069a4 g     F .text	00000004 __sinit_lock_release
0000d350 g     F .text	00000718 .hidden __muldf3
0000916c g     F .text	00000054 __sread
0000fa94 g     F .text	000000ac alt_find_file
0000f43c g     F .text	0000006c alt_dev_llist_insert
0000e934 g     F .text	00000004 __malloc_lock
0000ea28 g     F .text	0000004c sbrk
000065ac g     F .text	0000005c _fflush_r
0000aa80 g     F .text	000000c4 _calloc_r
00013ee8 g       *ABS*	00000000 __bss_start
00007a70 g     F .text	00000128 memset
00000e4c g     F .text	00000480 main
00013f2c g     O .bss	00000004 alt_envp
00013f10 g     O .bss	00000004 __malloc_max_total_mem
00000750 g     F .text	00000008 get_grayscale_width
0000ec44 g     F .text	00000010 altera_avalon_jtag_uart_write_fd
0000b100 g     F .text	00000018 __swbuf
00013f04 g     O .bss	00000004 sobel_x_result
000092a0 g     F .text	00000008 __sclose
01000000 g       *ABS*	00000000 __alt_heap_limit
0000ac34 g     F .text	00000014 fclose
0000f274 g     F .text	0000003c alt_timestamp_start
00004d08 g     F .text	00001688 _dtoa_r
00001cac g     F .text	0000080c _malloc_r
0000b274 g     F .text	00000030 __ascii_wctomb
000123e0 g     O .rwdata	00000004 alt_errno
000072c8 g     F .text	000000c4 _fwalk
0000bdb0 g     F .text	00000084 .hidden __divsi3
000069d8 g     F .text	00000124 _malloc_trim_r
00010178 g       *ABS*	00000000 __CTOR_END__
00013eec g     O .bss	00000004 grayscale_width
000092a8 g     F .text	000000dc strcmp
00000d48 g     F .text	0000008c transfer_LCD_no_dma
00010178 g       *ABS*	00000000 __flash_rodata_start
00010178 g       *ABS*	00000000 __DTOR_LIST__
0000d0f8 g     F .text	00000088 .hidden __nedf2
00010440 g     O .rodata	00000118 preview_snapshot_mode_reg_settings_array
0000eba8 g     F .text	00000020 alt_irq_init
0000ea04 g     F .text	00000024 alt_release_fd
00000780 g     F .text	000000a8 i2c_auto_detect
0000fca0 g     F .text	00000018 memalign
000107e4 g     O .rodata	00000100 .hidden __clz_tab
00000624 g     F .text	00000014 current_image_valid
00013f20 g     O .bss	00000004 _PathLocale
00000768 g     F .text	00000018 i2c_busy_wait
0000fc54 g     F .text	00000014 atexit
0000a9cc g     F .text	00000060 _write_r
00007508 g     F .text	00000018 setlocale
000123c0 g     O .rwdata	00000004 _impure_ptr
00013f34 g     O .bss	00000004 alt_argc
00006390 g     F .text	0000021c __sflush_r
00013f3c g     O .bss	00000004 altera_avalon_timer_ts_base
0000f50c g     F .text	00000064 _do_dtors
000074f4 g     F .text	00000008 __locale_cjk_lang
00000020 g       .exceptions	00000000 alt_irq_entry
000086bc g     F .text	00000064 __ulp
000069c0 g     F .text	00000018 __fp_unlock_all
000123d8 g     O .rwdata	00000008 alt_fs_list
00013f08 g     O .bss	00000004 sobel_y_result
000008b4 g     F .text	00000058 i2c_short_write
00000020 g       *ABS*	00000000 __ram_exceptions_start
00013ef4 g     O .bss	00000002 LCD_height
00007520 g     F .text	0000000c localeconv
0000f2b0 g     F .text	00000034 alt_timestamp
00001c74 g     F .text	00000010 vga_set_swap
0000f57c g     F .text	00000004 alt_ic_isr_register
000019a8 g     F .text	0000009c sobel_threshold
000123f4 g       *ABS*	00000000 _edata
000123b0 g     O .rwdata	00000004 pgx_array
00014078 g       *ABS*	00000000 _end
0000ac48 g     F .text	00000164 __fputwc
0000018c g       *ABS*	00000000 __ram_exceptions_end
0000ee88 g     F .text	00000074 altera_avalon_jtag_uart_ioctl
0001060c g     O .rodata	00000009 gx_array
0000f5b8 g     F .text	00000038 alt_ic_irq_disable
000091c8 g     F .text	0000007c __swrite
000123b8 g     O .rwdata	00000004 __malloc_trim_threshold
00013ef6 g     O .bss	00000002 LCD_width
000006bc g     F .text	00000094 conv_grayscale
000074e8 g     F .text	0000000c __locale_msgcharset
0000fc68 g     F .text	00000038 exit
0000738c g     F .text	000000c4 _fwalk_reent
000084c0 g     F .text	000001fc __mdiff
0000be34 g     F .text	00000074 .hidden __modsi3
0000fcb8 g     F .text	00000198 _memalign_r
01000000 g       *ABS*	00000000 __alt_data_end
00000020 g     F .exceptions	00000000 alt_exception
0000699c g     F .text	00000004 __sfp_lock_release
00000758 g     F .text	00000008 get_grayscale_height
00010164 g     F .text	00000014 _exit
000013b0 g     F .text	000000bc sobel_mac
0000f2ec g     F .text	00000080 alt_alarm_start
0000752c g     F .text	000001bc __smakebuf_r
00013f0c g     O .bss	00000004 sobel_rgb565
0000264c g     F .text	00000098 strlen
0000f774 g     F .text	00000178 open
0000d180 g     F .text	000000dc .hidden __gedf2
0000ea74 g     F .text	00000010 alt_uncached_free
000123c8 g     O .rwdata	00000004 __wctomb
00009480 g     F .text	00000018 __sprint_r
0000f570 g     F .text	0000000c alt_icache_flush_all
000123e8 g     O .rwdata	00000004 alt_priority_mask
0000f580 g     F .text	00000038 alt_ic_irq_enable
000048dc g     F .text	0000001c __vfprintf_internal
0000b2a4 g     F .text	0000005c _wctomb_r
0000da68 g     F .text	000008fc .hidden __subdf3
00007ef4 g     F .text	000000b0 __lo0bits
000123ec g     O .rwdata	00000008 alt_alarm_list
0000f4a8 g     F .text	00000064 _do_ctors
0000b1b4 g     F .text	000000c0 wcrtomb
0000e5cc g     F .text	000000bc close
0000e78c g     F .text	000000cc alt_load
0000add0 g     F .text	00000080 fputwc
00001c98 g     F .text	00000014 free
000069a0 g     F .text	00000004 __sinit_lock_acquire
00007c68 g     F .text	00000120 __multadd
00007c40 g     F .text	00000028 _Bfree
0000067c g     F .text	0000002c new_image_available



Disassembly of section .entry:

00000000 <__reset>:
#if NIOS2_ICACHE_SIZE > 0 && defined(ALT_ALLOW_CODE_AT_RESET) && (!defined(ALT_SIM_OPTIMIZE) || defined(NIOS2_ECC_PRESENT))
    /* Assume the instruction cache size is always a power of two. */
#if NIOS2_ICACHE_SIZE > 0x8000
    movhi r2, %hi(NIOS2_ICACHE_SIZE)
#else
    movui r2, NIOS2_ICACHE_SIZE
   0:	00840014 	movui	r2,4096
#endif

0:
    initi r2
   4:	1001483a 	initi	r2
    addi r2, r2, -NIOS2_ICACHE_LINE_SIZE
   8:	10bff804 	addi	r2,r2,-32
    bgt r2, zero, 0b
   c:	00bffd16 	blt	zero,r2,4 <__alt_data_end+0xff000004>
 * Jump to the _start entry point in the .text section if reset code
 * is allowed or if optimizing for RTL simulation.
 */
#if defined(ALT_ALLOW_CODE_AT_RESET) || defined(ALT_SIM_OPTIMIZE)
    /* Jump to the _start entry point in the .text section. */
    movhi r1, %hi(_start)
  10:	00400034 	movhi	at,0
    ori r1, r1, %lo(_start)
  14:	08406314 	ori	at,at,396
    jmp r1
  18:	0800683a 	jmp	at
  1c:	00000000 	call	0 <__reset>

Disassembly of section .exceptions:

00000020 <alt_exception>:

#else /* ALT_EXCEPTION_STACK disabled */
        /* 
         * Reserve space on normal stack for registers about to be pushed.
         */
        addi  sp, sp, -76
  20:	deffed04 	addi	sp,sp,-76
         * documentation for details).
         *
         * Leave a gap in the stack frame at 4(sp) for the muldiv handler to
         * store zero into.
         */
        stw   ra,  0(sp)
  24:	dfc00015 	stw	ra,0(sp)
        stw   r1,   8(sp)
  28:	d8400215 	stw	at,8(sp)
        stw   r2,  12(sp)
  2c:	d8800315 	stw	r2,12(sp)
        stw   r3,  16(sp)
  30:	d8c00415 	stw	r3,16(sp)
        stw   r4,  20(sp)
  34:	d9000515 	stw	r4,20(sp)
        stw   r5,  24(sp)
  38:	d9400615 	stw	r5,24(sp)
        stw   r6,  28(sp)
  3c:	d9800715 	stw	r6,28(sp)
        stw   r7,  32(sp)
  40:	d9c00815 	stw	r7,32(sp)
        rdctl r5, estatus   /* Read early to avoid usage stall */
  44:	000b307a 	rdctl	r5,estatus
        stw   r8,  36(sp)
  48:	da000915 	stw	r8,36(sp)
        stw   r9,  40(sp)
  4c:	da400a15 	stw	r9,40(sp)
        stw   r10, 44(sp)
  50:	da800b15 	stw	r10,44(sp)
        stw   r11, 48(sp)
  54:	dac00c15 	stw	r11,48(sp)
        stw   r12, 52(sp)
  58:	db000d15 	stw	r12,52(sp)
        stw   r13, 56(sp)
  5c:	db400e15 	stw	r13,56(sp)
        stw   r14, 60(sp)
  60:	db800f15 	stw	r14,60(sp)
        stw   r15, 64(sp)
  64:	dbc01015 	stw	r15,64(sp)
        /*
         * ea-4 contains the address of the instruction being executed
         * when the exception occured. For interrupt exceptions, we will
         * will be re-issue the isntruction. Store it in 72(sp)
         */
        stw   r5,  68(sp)  /* estatus */
  68:	d9401115 	stw	r5,68(sp)
        addi  r15, ea, -4  /* instruction that caused exception */
  6c:	ebffff04 	addi	r15,ea,-4
        stw   r15,  72(sp)
  70:	dbc01215 	stw	r15,72(sp)
#else
        /*
         * Test to see if the exception was a software exception or caused 
         * by an external interrupt, and vector accordingly.
         */
        rdctl r4, ipending
  74:	0009313a 	rdctl	r4,ipending
        andi  r2, r5, 1
  78:	2880004c 	andi	r2,r5,1
        beq   r2, zero, .Lnot_irq
  7c:	10000326 	beq	r2,zero,8c <alt_exception+0x6c>
        beq   r4, zero, .Lnot_irq
  80:	20000226 	beq	r4,zero,8c <alt_exception+0x6c>
        /*
         * Now that all necessary registers have been preserved, call 
         * alt_irq_handler() to process the interrupts.
         */

        call alt_irq_handler
  84:	00000fc0 	call	fc <alt_irq_handler>

        .section .exceptions.irqreturn, "xa"

        br    .Lexception_exit
  88:	00000706 	br	a8 <alt_exception+0x88>
         * upon completion, so we write ea (address of instruction *after*
         * the one where the exception occured) into 72(sp). The actual
         * instruction that caused the exception is written in r2, which these
         * handlers will utilize.
         */
        stw ea, 72(sp) /* EA is PC+4 so will skip over instruction causing exception */
  8c:	df401215 	stw	ea,72(sp)
.Lunknown_16bit:
        addi.n r4, r4, 2 /* Need PC+2 to skip over instruction causing exception */
        stw r4, 72(sp)

#else /* CDX is not Enabled and all instructions are 32bits */
        ldw r2, -4(ea) /* Instruction value that caused exception */
  90:	e8bfff17 	ldw	r2,-4(ea)
         * debugger is present) or go into an infinite loop since the
         * handling behavior is undefined; in that case we will not return here.
         */

        /* Load exception-causing address as first argument (r4) */
        addi   r4, ea, -4
  94:	e93fff04 	addi	r4,ea,-4

        /* Call the instruction-exception entry */
        call   alt_instruction_exception_entry
  98:	00001600 	call	160 <alt_instruction_exception_entry>
         * instruction
         *
         * Return code was 0: Skip. The instruction after the exception is
         * already stored in 72(sp).
         */
        bne   r2, r0, .Lexception_exit
  9c:	1000021e 	bne	r2,zero,a8 <alt_exception+0x88>

        /*
         * Otherwise, modify 72(sp) to re-issue the instruction that caused the
         * exception.
         */
        addi  r15, ea, -4  /* instruction that caused exception */
  a0:	ebffff04 	addi	r15,ea,-4
        stw   r15,  72(sp)
  a4:	dbc01215 	stw	r15,72(sp)
        /* 
         * Restore the saved registers, so that all general purpose registers 
         * have been restored to their state at the time the interrupt occured.
         */

        ldw   r5,  68(sp)
  a8:	d9401117 	ldw	r5,68(sp)
        ldw   ea,  72(sp)  /* This becomes the PC once eret is executed */
  ac:	df401217 	ldw	ea,72(sp)
        ldw   ra,   0(sp)
  b0:	dfc00017 	ldw	ra,0(sp)

        wrctl estatus, r5
  b4:	2801707a 	wrctl	estatus,r5

        ldw   r1,   8(sp)
  b8:	d8400217 	ldw	at,8(sp)
        ldw   r2,  12(sp)
  bc:	d8800317 	ldw	r2,12(sp)
        ldw   r3,  16(sp)
  c0:	d8c00417 	ldw	r3,16(sp)
        ldw   r4,  20(sp)
  c4:	d9000517 	ldw	r4,20(sp)
        ldw   r5,  24(sp)
  c8:	d9400617 	ldw	r5,24(sp)
        ldw   r6,  28(sp)
  cc:	d9800717 	ldw	r6,28(sp)
        ldw   r7,  32(sp)
  d0:	d9c00817 	ldw	r7,32(sp)

#if defined(ALT_EXCEPTION_STACK) && defined(ALT_STACK_CHECK)
        ldw   et, %gprel(alt_exception_old_stack_limit)(gp)
#endif

        ldw   r8,  36(sp)
  d4:	da000917 	ldw	r8,36(sp)
        ldw   r9,  40(sp)
  d8:	da400a17 	ldw	r9,40(sp)
        ldw   r10, 44(sp)
  dc:	da800b17 	ldw	r10,44(sp)
        ldw   r11, 48(sp)
  e0:	dac00c17 	ldw	r11,48(sp)
        ldw   r12, 52(sp)
  e4:	db000d17 	ldw	r12,52(sp)
        ldw   r13, 56(sp)
  e8:	db400e17 	ldw	r13,56(sp)
        ldw   r14, 60(sp)
  ec:	db800f17 	ldw	r14,60(sp)
        ldw   r15, 64(sp)
  f0:	dbc01017 	ldw	r15,64(sp)
        stw   et, %gprel(alt_stack_limit_value)(gp)
        stw   zero, %gprel(alt_exception_old_stack_limit)(gp)
#endif /* ALT_STACK_CHECK */
        ldw   sp,  76(sp)
#else /* ALT_EXCEPTION_STACK disabled */
        addi  sp, sp, 76
  f4:	dec01304 	addi	sp,sp,76

        /*
         * Return to the interrupted instruction.
         */

        eret
  f8:	ef80083a 	eret

000000fc <alt_irq_handler>:
 * instruction is present if the macro ALT_CI_INTERRUPT_VECTOR defined.
 */

void alt_irq_handler (void) __attribute__ ((section (".exceptions")));
void alt_irq_handler (void)
{
  fc:	defffe04 	addi	sp,sp,-8
 100:	dfc00115 	stw	ra,4(sp)
 104:	dc000015 	stw	r16,0(sp)
#ifndef NIOS2_EIC_PRESENT
static ALT_INLINE alt_u32 ALT_ALWAYS_INLINE alt_irq_pending (void)
{
  alt_u32 active;

  NIOS2_READ_IPENDING (active);
 108:	000b313a 	rdctl	r5,ipending
 10c:	04000074 	movhi	r16,1
 110:	840fde04 	addi	r16,r16,16248
     * called to clear the interrupt condition.
     */

    do
    {
      if (active & mask)
 114:	2880004c 	andi	r2,r5,1

  active = alt_irq_pending ();

  do
  {
    i = 0;
 118:	0007883a 	mov	r3,zero
     * called to clear the interrupt condition.
     */

    do
    {
      if (active & mask)
 11c:	1000051e 	bne	r2,zero,134 <alt_irq_handler+0x38>
 120:	00800044 	movi	r2,1
#else
        alt_irq[i].handler(alt_irq[i].context, i); 
#endif
        break;
      }
      mask <<= 1;
 124:	1085883a 	add	r2,r2,r2
     * called to clear the interrupt condition.
     */

    do
    {
      if (active & mask)
 128:	2888703a 	and	r4,r5,r2
        alt_irq[i].handler(alt_irq[i].context, i); 
#endif
        break;
      }
      mask <<= 1;
      i++;
 12c:	18c00044 	addi	r3,r3,1
     * called to clear the interrupt condition.
     */

    do
    {
      if (active & mask)
 130:	203ffc26 	beq	r4,zero,124 <__alt_data_end+0xff000124>
      { 
#ifdef ALT_ENHANCED_INTERRUPT_API_PRESENT
        alt_irq[i].handler(alt_irq[i].context); 
 134:	180690fa 	slli	r3,r3,3
 138:	80c7883a 	add	r3,r16,r3
 13c:	18800017 	ldw	r2,0(r3)
 140:	19000117 	ldw	r4,4(r3)
 144:	103ee83a 	callr	r2
 148:	000b313a 	rdctl	r5,ipending

    } while (1);

    active = alt_irq_pending ();
    
  } while (active);
 14c:	283ff11e 	bne	r5,zero,114 <__alt_data_end+0xff000114>
  /*
   * Notify the operating system that interrupt processing is complete.
   */ 

  ALT_OS_INT_EXIT();
}
 150:	dfc00117 	ldw	ra,4(sp)
 154:	dc000017 	ldw	r16,0(sp)
 158:	dec00204 	addi	sp,sp,8
 15c:	f800283a 	ret

00000160 <alt_instruction_exception_entry>:
 * that handler if it has been registered. Absent a handler, it will
 * break break or hang as discussed below.
 */
int 
alt_instruction_exception_entry (alt_u32 exception_pc)
{
 160:	200b883a 	mov	r5,r4
 * NIOS2_EXCEPTION_CAUSE_NOT_PRESENT. Your handling routine should
 * check the validity of the cause argument before proceeding.
 */
#ifdef NIOS2_HAS_EXTRA_EXCEPTION_INFO
  /* Get exception cause & "badaddr" */
  NIOS2_READ_EXCEPTION(cause);
 164:	000931fa 	rdctl	r4,exception
  cause = ( (cause & NIOS2_EXCEPTION_REG_CAUSE_MASK) >>
              NIOS2_EXCEPTION_REG_CAUSE_OFST );

  NIOS2_READ_BADADDR(badaddr);
 168:	000d333a 	rdctl	r6,badaddr
#else
  cause = NIOS2_EXCEPTION_CAUSE_NOT_PRESENT;
  badaddr = 0;
#endif /* NIOS2_HAS_EXTRA_EXCEPTION_INFO */

  if(alt_instruction_exception_handler) {
 16c:	d0a6e817 	ldw	r2,-25696(gp)
 170:	10000326 	beq	r2,zero,180 <alt_instruction_exception_entry+0x20>
 * check the validity of the cause argument before proceeding.
 */
#ifdef NIOS2_HAS_EXTRA_EXCEPTION_INFO
  /* Get exception cause & "badaddr" */
  NIOS2_READ_EXCEPTION(cause);
  cause = ( (cause & NIOS2_EXCEPTION_REG_CAUSE_MASK) >>
 174:	21001f0c 	andi	r4,r4,124
     * Call handler. Its return value indicates whether the exception-causing
     * instruction should be re-issued. The code that called us,
     * alt_eceptions_entry.S, will look at this value and adjust the ea
     * register as necessary
     */
    return alt_instruction_exception_handler(cause, exception_pc, badaddr);
 178:	2008d0ba 	srli	r4,r4,2
 17c:	1000683a 	jmp	r2
   *    (a peripheral which negates its interrupt output before its
   *    interrupt handler has been executed will cause spurious interrupts)
   */
  else {
#ifdef NIOS2_HAS_DEBUG_STUB
    NIOS2_BREAK();
 180:	003da03a 	break	0
#endif /* NIOS2_HAS_DEBUG_STUB */
  }

  /* We should not get here. Remove compiler warning. */
  return NIOS2_EXCEPTION_RETURN_REISSUE_INST;
}
 184:	0005883a 	mov	r2,zero
 188:	f800283a 	ret

Disassembly of section .text:

0000018c <_start>:

    /* Assume the data cache size is always a power of two. */
#if NIOS2_DCACHE_SIZE > 0x8000
    movhi r2, %hi(NIOS2_DCACHE_SIZE)
#else
    movui r2, NIOS2_DCACHE_SIZE
     18c:	00900014 	movui	r2,16384
#endif

0:
    initd 0(r2)
     190:	10000033 	initd	0(r2)
#ifdef NIOS2_ECC_PRESENT
    addi r2, r2, -4
#else
    addi r2, r2, -NIOS2_DCACHE_LINE_SIZE
     194:	10bff804 	addi	r2,r2,-32
#endif
    bgt r2, zero, 0b
     198:	00bffd16 	blt	zero,r2,190 <__alt_data_end+0xff000190>

    /*
     * Now that the caches are initialized, set up the stack pointer and global pointer.
     * The values provided by the linker are assumed to be correctly aligned.
     */
    movhi sp, %hi(__alt_stack_pointer)
     19c:	06c04034 	movhi	sp,256
    ori sp, sp, %lo(__alt_stack_pointer)
     1a0:	dec00014 	ori	sp,sp,0
    movhi gp, %hi(_gp)
     1a4:	06800074 	movhi	gp,1
    ori gp, gp, %lo(_gp)
     1a8:	d6a8eb14 	ori	gp,gp,41900
 */
#ifndef ALT_SIM_OPTIMIZE
    /* Log that the BSS is about to be cleared. */
    ALT_LOG_PUTS(alt_log_msg_bss)

    movhi r2, %hi(__bss_start)
     1ac:	00800074 	movhi	r2,1
    ori r2, r2, %lo(__bss_start)
     1b0:	108fba14 	ori	r2,r2,16104

    movhi r3, %hi(__bss_end)
     1b4:	00c00074 	movhi	r3,1
    ori r3, r3, %lo(__bss_end)
     1b8:	18d01e14 	ori	r3,r3,16504

    beq r2, r3, 1f
     1bc:	10c00326 	beq	r2,r3,1cc <_start+0x40>

0:
    stw zero, (r2)
     1c0:	10000015 	stw	zero,0(r2)
    addi r2, r2, 4
     1c4:	10800104 	addi	r2,r2,4
    bltu r2, r3, 0b
     1c8:	10fffd36 	bltu	r2,r3,1c0 <__alt_data_end+0xff0001c0>
     * section aren't defined until alt_load() has been called).
     */
    mov   et, zero
#endif

    call alt_load
     1cc:	000e78c0 	call	e78c <alt_load>

    /* Log that alt_main is about to be called. */
    ALT_LOG_PUTS(alt_log_msg_alt_main)

    /* Call the C entry point. It should never return. */
    call alt_main
     1d0:	000e8d40 	call	e8d4 <alt_main>

000001d4 <alt_after_alt_main>:

    /* Wait in infinite loop in case alt_main does return. */
alt_after_alt_main:
    br alt_after_alt_main
     1d4:	003fff06 	br	1d4 <__alt_data_end+0xff0001d4>

000001d8 <init_camera>:
#include "camera.h"
#include "mt9d112.h"

void init_camera() {
	int i;
	IOWR_8DIRECT(I2C_CTRL_BASE,I2C_PRESCALE_REG,2); // Set prescaler
     1d8:	00804034 	movhi	r2,256
     1dc:	10842744 	addi	r2,r2,4253
     1e0:	00c00084 	movi	r3,2
     1e4:	10c00025 	stbio	r3,0(r2)
	IOWR_8DIRECT(CAM_CTRL_BASE,CAM_CONTROL_REG,CAM_Reset);
     1e8:	00804034 	movhi	r2,256
     1ec:	10841304 	addi	r2,r2,4172
     1f0:	00c00044 	movi	r3,1
     1f4:	10c00025 	stbio	r3,0(r2)
     1f8:	008003f4 	movhi	r2,15
     1fc:	10909004 	addi	r2,r2,16960
	for (i=0; i < 1000000 ; i++)
		asm volatile ("nop");
     200:	0001883a 	nop
     204:	10bfffc4 	addi	r2,r2,-1

void init_camera() {
	int i;
	IOWR_8DIRECT(I2C_CTRL_BASE,I2C_PRESCALE_REG,2); // Set prescaler
	IOWR_8DIRECT(CAM_CTRL_BASE,CAM_CONTROL_REG,CAM_Reset);
	for (i=0; i < 1000000 ; i++)
     208:	103ffd1e 	bne	r2,zero,200 <__alt_data_end+0xff000200>
		asm volatile ("nop");
	IOWR_8DIRECT(CAM_CTRL_BASE,CAM_CONTROL_REG,0);
     20c:	00804034 	movhi	r2,256
     210:	10841304 	addi	r2,r2,4172
     214:	10000025 	stbio	zero,0(r2)
     218:	008003f4 	movhi	r2,15
     21c:	10909004 	addi	r2,r2,16960
	for (i=0; i < 1000000 ; i++)
		asm volatile ("nop");
     220:	0001883a 	nop
     224:	10bfffc4 	addi	r2,r2,-1
	IOWR_8DIRECT(I2C_CTRL_BASE,I2C_PRESCALE_REG,2); // Set prescaler
	IOWR_8DIRECT(CAM_CTRL_BASE,CAM_CONTROL_REG,CAM_Reset);
	for (i=0; i < 1000000 ; i++)
		asm volatile ("nop");
	IOWR_8DIRECT(CAM_CTRL_BASE,CAM_CONTROL_REG,0);
	for (i=0; i < 1000000 ; i++)
     228:	103ffd1e 	bne	r2,zero,220 <__alt_data_end+0xff000220>
#include <stdio.h>
#include "i2c.h"
#include "camera.h"
#include "mt9d112.h"

void init_camera() {
     22c:	defffc04 	addi	sp,sp,-16
	for (i=0; i < 1000000 ; i++)
		asm volatile ("nop");
	IOWR_8DIRECT(CAM_CTRL_BASE,CAM_CONTROL_REG,0);
	for (i=0; i < 1000000 ; i++)
		asm volatile ("nop");
	i2c_short_write(CAM_I2C_ID,REG_MT9D112_MCU_BOOT,0x0001);
     230:	01800044 	movi	r6,1
     234:	014ce184 	movi	r5,13190
     238:	01001e04 	movi	r4,120
#include <stdio.h>
#include "i2c.h"
#include "camera.h"
#include "mt9d112.h"

void init_camera() {
     23c:	dfc00315 	stw	ra,12(sp)
     240:	dc800215 	stw	r18,8(sp)
     244:	dc400115 	stw	r17,4(sp)
     248:	dc000015 	stw	r16,0(sp)
	for (i=0; i < 1000000 ; i++)
		asm volatile ("nop");
	IOWR_8DIRECT(CAM_CTRL_BASE,CAM_CONTROL_REG,0);
	for (i=0; i < 1000000 ; i++)
		asm volatile ("nop");
	i2c_short_write(CAM_I2C_ID,REG_MT9D112_MCU_BOOT,0x0001);
     24c:	00008b40 	call	8b4 <i2c_short_write>
	i2c_short_write(CAM_I2C_ID,REG_MT9D112_MCU_BOOT,0x0000);
     250:	000d883a 	mov	r6,zero
     254:	014ce184 	movi	r5,13190
     258:	01001e04 	movi	r4,120
     25c:	00008b40 	call	8b4 <i2c_short_write>
     260:	008003f4 	movhi	r2,15
     264:	10909004 	addi	r2,r2,16960
	for (i=0; i < 1000000 ; i++)
		asm volatile ("nop");
     268:	0001883a 	nop
     26c:	10bfffc4 	addi	r2,r2,-1
	IOWR_8DIRECT(CAM_CTRL_BASE,CAM_CONTROL_REG,0);
	for (i=0; i < 1000000 ; i++)
		asm volatile ("nop");
	i2c_short_write(CAM_I2C_ID,REG_MT9D112_MCU_BOOT,0x0001);
	i2c_short_write(CAM_I2C_ID,REG_MT9D112_MCU_BOOT,0x0000);
	for (i=0; i < 1000000 ; i++)
     270:	103ffd1e 	bne	r2,zero,268 <__alt_data_end+0xff000268>
		asm volatile ("nop");
	i2c_short_write(CAM_I2C_ID,REG_MT9D112_SENSOR_RESET,0x00C4);
     274:	01803104 	movi	r6,196
     278:	014c0684 	movi	r5,12314
     27c:	01001e04 	movi	r4,120
     280:	00008b40 	call	8b4 <i2c_short_write>
	i2c_short_write(CAM_I2C_ID,REG_MT9D112_STANDBY_CONTROL,0x0008);
     284:	01800204 	movi	r6,8
     288:	014c8084 	movi	r5,12802
     28c:	01001e04 	movi	r4,120
     290:	00008b40 	call	8b4 <i2c_short_write>
	i2c_short_write(CAM_I2C_ID,0x33F4,0x031D);
     294:	0180c744 	movi	r6,797
     298:	014cfd04 	movi	r5,13300
     29c:	01001e04 	movi	r4,120
     2a0:	00008b40 	call	8b4 <i2c_short_write>
     2a4:	008000b4 	movhi	r2,2
     2a8:	10a1a804 	addi	r2,r2,-31072
	for (i=0; i < 100000 ; i++)
		asm volatile ("nop");
     2ac:	0001883a 	nop
     2b0:	10bfffc4 	addi	r2,r2,-1
	for (i=0; i < 1000000 ; i++)
		asm volatile ("nop");
	i2c_short_write(CAM_I2C_ID,REG_MT9D112_SENSOR_RESET,0x00C4);
	i2c_short_write(CAM_I2C_ID,REG_MT9D112_STANDBY_CONTROL,0x0008);
	i2c_short_write(CAM_I2C_ID,0x33F4,0x031D);
	for (i=0; i < 100000 ; i++)
     2b4:	103ffd1e 	bne	r2,zero,2ac <__alt_data_end+0xff0002ac>
		asm volatile ("nop");
	/* enable PLL */
	i2c_short_write(CAM_I2C_ID,REG_MT9D112_PLL_CLK_IN_CONTROL,0x8F09);
     2b8:	01a3c254 	movui	r6,36617
     2bc:	014d0784 	movi	r5,13342
     2c0:	01001e04 	movi	r4,120
     2c4:	00008b40 	call	8b4 <i2c_short_write>
	i2c_short_write(CAM_I2C_ID,REG_MT9D112_PLL_DIVIDERS_1,0x0150);
     2c8:	01805404 	movi	r6,336
     2cc:	014d0704 	movi	r5,13340
     2d0:	01001e04 	movi	r4,120
     2d4:	00008b40 	call	8b4 <i2c_short_write>
	i2c_short_write(CAM_I2C_ID,REG_MT9D112_PLL_CLK_IN_CONTROL,0x8F09);
     2d8:	01a3c254 	movui	r6,36617
     2dc:	014d0784 	movi	r5,13342
     2e0:	01001e04 	movi	r4,120
     2e4:	00008b40 	call	8b4 <i2c_short_write>
     2e8:	008000b4 	movhi	r2,2
     2ec:	10a1a804 	addi	r2,r2,-31072
	for (i=0; i < 100000 ; i++)
		asm volatile ("nop");
     2f0:	0001883a 	nop
     2f4:	10bfffc4 	addi	r2,r2,-1
		asm volatile ("nop");
	/* enable PLL */
	i2c_short_write(CAM_I2C_ID,REG_MT9D112_PLL_CLK_IN_CONTROL,0x8F09);
	i2c_short_write(CAM_I2C_ID,REG_MT9D112_PLL_DIVIDERS_1,0x0150);
	i2c_short_write(CAM_I2C_ID,REG_MT9D112_PLL_CLK_IN_CONTROL,0x8F09);
	for (i=0; i < 100000 ; i++)
     2f8:	103ffd1e 	bne	r2,zero,2f0 <__alt_data_end+0xff0002f0>
     2fc:	04000074 	movhi	r16,1
     300:	84011004 	addi	r16,r16,1088
		asm volatile ("nop");
	i2c_short_write(CAM_I2C_ID,REG_MT9D112_PLL_CLK_IN_CONTROL,0x8F08);
     304:	01a3c214 	movui	r6,36616
     308:	014d0784 	movi	r5,13342
     30c:	01001e04 	movi	r4,120
     310:	00008b40 	call	8b4 <i2c_short_write>
     314:	84400084 	addi	r17,r16,2
     318:	84804604 	addi	r18,r16,280
	/* Set regs */
	for (i = 0 ; i < (sizeof(preview_snapshot_mode_reg_settings_array)/4); i++) {
		i2c_short_write(CAM_I2C_ID,
     31c:	8980000b 	ldhu	r6,0(r17)
     320:	8140000b 	ldhu	r5,0(r16)
     324:	01001e04 	movi	r4,120
     328:	84000104 	addi	r16,r16,4
     32c:	00008b40 	call	8b4 <i2c_short_write>
     330:	8c400104 	addi	r17,r17,4
	i2c_short_write(CAM_I2C_ID,REG_MT9D112_PLL_CLK_IN_CONTROL,0x8F09);
	for (i=0; i < 100000 ; i++)
		asm volatile ("nop");
	i2c_short_write(CAM_I2C_ID,REG_MT9D112_PLL_CLK_IN_CONTROL,0x8F08);
	/* Set regs */
	for (i = 0 ; i < (sizeof(preview_snapshot_mode_reg_settings_array)/4); i++) {
     334:	84bff91e 	bne	r16,r18,31c <__alt_data_end+0xff00031c>
     338:	04000074 	movhi	r16,1
     33c:	8400c004 	addi	r16,r16,768
     340:	84400084 	addi	r17,r16,2
     344:	84805004 	addi	r18,r16,320
		i2c_short_write(CAM_I2C_ID,
				preview_snapshot_mode_reg_settings_array[i][0],
				preview_snapshot_mode_reg_settings_array[i][1]);
	}
	for (i = 0 ; i < (sizeof(noise_reduction_reg_settings_array)/4); i++) {
		i2c_short_write(CAM_I2C_ID,
     348:	8980000b 	ldhu	r6,0(r17)
     34c:	8140000b 	ldhu	r5,0(r16)
     350:	01001e04 	movi	r4,120
     354:	84000104 	addi	r16,r16,4
     358:	00008b40 	call	8b4 <i2c_short_write>
     35c:	8c400104 	addi	r17,r17,4
	for (i = 0 ; i < (sizeof(preview_snapshot_mode_reg_settings_array)/4); i++) {
		i2c_short_write(CAM_I2C_ID,
				preview_snapshot_mode_reg_settings_array[i][0],
				preview_snapshot_mode_reg_settings_array[i][1]);
	}
	for (i = 0 ; i < (sizeof(noise_reduction_reg_settings_array)/4); i++) {
     360:	943ff91e 	bne	r18,r16,348 <__alt_data_end+0xff000348>
		i2c_short_write(CAM_I2C_ID,
				noise_reduction_reg_settings_array[i][0],
				noise_reduction_reg_settings_array[i][1]);
	}
	i2c_short_write(CAM_I2C_ID,0x35A4,0x0593);
     364:	018164c4 	movi	r6,1427
     368:	014d6904 	movi	r5,13732
     36c:	01001e04 	movi	r4,120
     370:	00008b40 	call	8b4 <i2c_short_write>
// sequencer table
	i2c_short_write(CAM_I2C_ID,0x338C,0x2799);
     374:	0189e644 	movi	r6,10137
     378:	014ce304 	movi	r5,13196
     37c:	01001e04 	movi	r4,120
     380:	00008b40 	call	8b4 <i2c_short_write>
	i2c_short_write(CAM_I2C_ID,0x3390,0x6440);
     384:	01991004 	movi	r6,25664
     388:	014ce404 	movi	r5,13200
     38c:	01001e04 	movi	r4,120
     390:	00008b40 	call	8b4 <i2c_short_write>
     394:	008000b4 	movhi	r2,2
     398:	10a1a804 	addi	r2,r2,-31072
	for (i=0; i < 100000 ; i++)
		asm volatile ("nop");
     39c:	0001883a 	nop
     3a0:	10bfffc4 	addi	r2,r2,-1
	}
	i2c_short_write(CAM_I2C_ID,0x35A4,0x0593);
// sequencer table
	i2c_short_write(CAM_I2C_ID,0x338C,0x2799);
	i2c_short_write(CAM_I2C_ID,0x3390,0x6440);
	for (i=0; i < 100000 ; i++)
     3a4:	103ffd1e 	bne	r2,zero,39c <__alt_data_end+0xff00039c>
		asm volatile ("nop");
	i2c_short_write(CAM_I2C_ID,0x338C,0x279B);
     3a8:	0189e6c4 	movi	r6,10139
     3ac:	014ce304 	movi	r5,13196
     3b0:	01001e04 	movi	r4,120
     3b4:	00008b40 	call	8b4 <i2c_short_write>
	i2c_short_write(CAM_I2C_ID,0x3390,0x6440);
     3b8:	01991004 	movi	r6,25664
     3bc:	014ce404 	movi	r5,13200
     3c0:	01001e04 	movi	r4,120
     3c4:	00008b40 	call	8b4 <i2c_short_write>
     3c8:	008000b4 	movhi	r2,2
     3cc:	10a1a804 	addi	r2,r2,-31072
	for (i=0; i < 100000 ; i++)
		asm volatile ("nop");
     3d0:	0001883a 	nop
     3d4:	10bfffc4 	addi	r2,r2,-1
	i2c_short_write(CAM_I2C_ID,0x3390,0x6440);
	for (i=0; i < 100000 ; i++)
		asm volatile ("nop");
	i2c_short_write(CAM_I2C_ID,0x338C,0x279B);
	i2c_short_write(CAM_I2C_ID,0x3390,0x6440);
	for (i=0; i < 100000 ; i++)
     3d8:	103ffd1e 	bne	r2,zero,3d0 <__alt_data_end+0xff0003d0>
		asm volatile ("nop");
	i2c_short_write(CAM_I2C_ID,0x338C,0xA103);
     3dc:	01a840d4 	movui	r6,41219
     3e0:	014ce304 	movi	r5,13196
     3e4:	01001e04 	movi	r4,120
     3e8:	00008b40 	call	8b4 <i2c_short_write>
	i2c_short_write(CAM_I2C_ID,0x3390,0x0005);
     3ec:	01800144 	movi	r6,5
     3f0:	014ce404 	movi	r5,13200
     3f4:	01001e04 	movi	r4,120
     3f8:	00008b40 	call	8b4 <i2c_short_write>
     3fc:	008000b4 	movhi	r2,2
     400:	10a1a804 	addi	r2,r2,-31072
	for (i=0; i < 100000 ; i++)
		asm volatile ("nop");
     404:	0001883a 	nop
     408:	10bfffc4 	addi	r2,r2,-1
	i2c_short_write(CAM_I2C_ID,0x3390,0x6440);
	for (i=0; i < 100000 ; i++)
		asm volatile ("nop");
	i2c_short_write(CAM_I2C_ID,0x338C,0xA103);
	i2c_short_write(CAM_I2C_ID,0x3390,0x0005);
	for (i=0; i < 100000 ; i++)
     40c:	103ffd1e 	bne	r2,zero,404 <__alt_data_end+0xff000404>
		asm volatile ("nop");
	i2c_short_write(CAM_I2C_ID,0x338C,0xA103);
     410:	01a840d4 	movui	r6,41219
     414:	014ce304 	movi	r5,13196
     418:	01001e04 	movi	r4,120
     41c:	00008b40 	call	8b4 <i2c_short_write>
	i2c_short_write(CAM_I2C_ID,0x3390,0x0006);
     420:	01800184 	movi	r6,6
     424:	014ce404 	movi	r5,13200
     428:	01001e04 	movi	r4,120
     42c:	00008b40 	call	8b4 <i2c_short_write>
     430:	008000b4 	movhi	r2,2
     434:	10a1a804 	addi	r2,r2,-31072
	for (i=0; i < 100000 ; i++)
		asm volatile ("nop");
     438:	0001883a 	nop
     43c:	10bfffc4 	addi	r2,r2,-1
	i2c_short_write(CAM_I2C_ID,0x3390,0x0005);
	for (i=0; i < 100000 ; i++)
		asm volatile ("nop");
	i2c_short_write(CAM_I2C_ID,0x338C,0xA103);
	i2c_short_write(CAM_I2C_ID,0x3390,0x0006);
	for (i=0; i < 100000 ; i++)
     440:	103ffd1e 	bne	r2,zero,438 <__alt_data_end+0xff000438>
     444:	04000074 	movhi	r16,1
     448:	84007604 	addi	r16,r16,472
     44c:	84400084 	addi	r17,r16,2
     450:	84804a04 	addi	r18,r16,296
		asm volatile ("nop");
	for (i = 0 ; i < (sizeof(lens_roll_off_tbl)/4); i++) {
		i2c_short_write(CAM_I2C_ID,
     454:	8980000b 	ldhu	r6,0(r17)
     458:	8140000b 	ldhu	r5,0(r16)
     45c:	01001e04 	movi	r4,120
     460:	84000104 	addi	r16,r16,4
     464:	00008b40 	call	8b4 <i2c_short_write>
     468:	8c400104 	addi	r17,r17,4
		asm volatile ("nop");
	i2c_short_write(CAM_I2C_ID,0x338C,0xA103);
	i2c_short_write(CAM_I2C_ID,0x3390,0x0006);
	for (i=0; i < 100000 ; i++)
		asm volatile ("nop");
	for (i = 0 ; i < (sizeof(lens_roll_off_tbl)/4); i++) {
     46c:	943ff91e 	bne	r18,r16,454 <__alt_data_end+0xff000454>
     470:	008003f4 	movhi	r2,15
     474:	10909004 	addi	r2,r2,16960
		i2c_short_write(CAM_I2C_ID,
				lens_roll_off_tbl[i][0],
				lens_roll_off_tbl[i][1]);
	}
	for (i=0; i < 1000000 ; i++)
		asm volatile ("nop");
     478:	0001883a 	nop
     47c:	10bfffc4 	addi	r2,r2,-1
	for (i = 0 ; i < (sizeof(lens_roll_off_tbl)/4); i++) {
		i2c_short_write(CAM_I2C_ID,
				lens_roll_off_tbl[i][0],
				lens_roll_off_tbl[i][1]);
	}
	for (i=0; i < 1000000 ; i++)
     480:	103ffd1e 	bne	r2,zero,478 <__alt_data_end+0xff000478>
		asm volatile ("nop");
	i2c_short_write(CAM_I2C_ID,0x332E,0x0020);
     484:	01800804 	movi	r6,32
     488:	014ccb84 	movi	r5,13102
     48c:	01001e04 	movi	r4,120
     490:	00008b40 	call	8b4 <i2c_short_write>
     494:	008003f4 	movhi	r2,15
     498:	10909004 	addi	r2,r2,16960
	for (i=0; i < 1000000 ; i++)
		asm volatile ("nop");
     49c:	0001883a 	nop
     4a0:	10bfffc4 	addi	r2,r2,-1
				lens_roll_off_tbl[i][1]);
	}
	for (i=0; i < 1000000 ; i++)
		asm volatile ("nop");
	i2c_short_write(CAM_I2C_ID,0x332E,0x0020);
	for (i=0; i < 1000000 ; i++)
     4a4:	103ffd1e 	bne	r2,zero,49c <__alt_data_end+0xff00049c>
		asm volatile ("nop");
	i2c_short_write(CAM_I2C_ID,0x3404,0x0022); /* set RGB565 mode */
     4a8:	01800884 	movi	r6,34
     4ac:	014d0104 	movi	r5,13316
     4b0:	01001e04 	movi	r4,120
     4b4:	00008b40 	call	8b4 <i2c_short_write>
     4b8:	008003f4 	movhi	r2,15
     4bc:	10909004 	addi	r2,r2,16960
	for (i=0; i < 1000000 ; i++)
		asm volatile ("nop");
     4c0:	0001883a 	nop
     4c4:	10bfffc4 	addi	r2,r2,-1
		asm volatile ("nop");
	i2c_short_write(CAM_I2C_ID,0x332E,0x0020);
	for (i=0; i < 1000000 ; i++)
		asm volatile ("nop");
	i2c_short_write(CAM_I2C_ID,0x3404,0x0022); /* set RGB565 mode */
	for (i=0; i < 1000000 ; i++)
     4c8:	103ffd1e 	bne	r2,zero,4c0 <__alt_data_end+0xff0004c0>
		asm volatile ("nop");
	i2c_short_write(CAM_I2C_ID,0x3040,0x0027); /* mirror */
     4cc:	018009c4 	movi	r6,39
     4d0:	014c1004 	movi	r5,12352
     4d4:	01001e04 	movi	r4,120
}
     4d8:	dfc00317 	ldw	ra,12(sp)
     4dc:	dc800217 	ldw	r18,8(sp)
     4e0:	dc400117 	ldw	r17,4(sp)
     4e4:	dc000017 	ldw	r16,0(sp)
     4e8:	dec00404 	addi	sp,sp,16
	for (i=0; i < 1000000 ; i++)
		asm volatile ("nop");
	i2c_short_write(CAM_I2C_ID,0x3404,0x0022); /* set RGB565 mode */
	for (i=0; i < 1000000 ; i++)
		asm volatile ("nop");
	i2c_short_write(CAM_I2C_ID,0x3040,0x0027); /* mirror */
     4ec:	00008b41 	jmpi	8b4 <i2c_short_write>

000004f0 <cam_get_xsize>:
}

unsigned short cam_get_xsize(){
	unsigned char control_reg;
	do {
		control_reg = IORD_8DIRECT(CAM_CTRL_BASE,CAM_CONTROL_REG);
     4f0:	00c04034 	movhi	r3,256
     4f4:	18c41304 	addi	r3,r3,4172
     4f8:	18800023 	ldbuio	r2,0(r3)
	} while ((control_reg&CAM_Profile_valid)==0);
     4fc:	1080010c 	andi	r2,r2,4
     500:	103ffd26 	beq	r2,zero,4f8 <__alt_data_end+0xff0004f8>
	return IORD_16DIRECT(CAM_CTRL_BASE,CAM_BYTES_EACH_LINE_REG);
     504:	00804034 	movhi	r2,256
     508:	10841004 	addi	r2,r2,4160
}
     50c:	1080002b 	ldhuio	r2,0(r2)
     510:	f800283a 	ret

00000514 <cam_get_ysize>:

unsigned short cam_get_ysize() {
	unsigned char control_reg;
	do {
		control_reg = IORD_8DIRECT(CAM_CTRL_BASE,CAM_CONTROL_REG);
     514:	00c04034 	movhi	r3,256
     518:	18c41304 	addi	r3,r3,4172
     51c:	18800023 	ldbuio	r2,0(r3)
	} while ((control_reg&CAM_Profile_valid)==0);
     520:	1080010c 	andi	r2,r2,4
     524:	103ffd26 	beq	r2,zero,51c <__alt_data_end+0xff00051c>
	return IORD_16DIRECT(CAM_CTRL_BASE,CAM_LINES_EACH_FRAME_REG);
     528:	00804034 	movhi	r2,256
     52c:	10841104 	addi	r2,r2,4164
}
     530:	1080002b 	ldhuio	r2,0(r2)
     534:	f800283a 	ret

00000538 <cam_get_profiling>:

void cam_get_profiling() {
	unsigned char control_reg;
	do {
		control_reg = IORD_8DIRECT(CAM_CTRL_BASE,CAM_CONTROL_REG);
     538:	00c04034 	movhi	r3,256
     53c:	18c41304 	addi	r3,r3,4172
     540:	18800023 	ldbuio	r2,0(r3)
	} while ((control_reg&CAM_Profile_valid)==0);
     544:	1080010c 	andi	r2,r2,4
     548:	103ffd26 	beq	r2,zero,540 <__alt_data_end+0xff000540>
	printf("Nr. of bytes each line    : %d\n",
     54c:	00804034 	movhi	r2,256
		control_reg = IORD_8DIRECT(CAM_CTRL_BASE,CAM_CONTROL_REG);
	} while ((control_reg&CAM_Profile_valid)==0);
	return IORD_16DIRECT(CAM_CTRL_BASE,CAM_LINES_EACH_FRAME_REG);
}

void cam_get_profiling() {
     550:	deffff04 	addi	sp,sp,-4
	unsigned char control_reg;
	do {
		control_reg = IORD_8DIRECT(CAM_CTRL_BASE,CAM_CONTROL_REG);
	} while ((control_reg&CAM_Profile_valid)==0);
	printf("Nr. of bytes each line    : %d\n",
     554:	10841004 	addi	r2,r2,4160
		control_reg = IORD_8DIRECT(CAM_CTRL_BASE,CAM_CONTROL_REG);
	} while ((control_reg&CAM_Profile_valid)==0);
	return IORD_16DIRECT(CAM_CTRL_BASE,CAM_LINES_EACH_FRAME_REG);
}

void cam_get_profiling() {
     558:	dfc00015 	stw	ra,0(sp)
	unsigned char control_reg;
	do {
		control_reg = IORD_8DIRECT(CAM_CTRL_BASE,CAM_CONTROL_REG);
	} while ((control_reg&CAM_Profile_valid)==0);
	printf("Nr. of bytes each line    : %d\n",
     55c:	1140002b 	ldhuio	r5,0(r2)
     560:	01000074 	movhi	r4,1
     564:	21005e04 	addi	r4,r4,376
     568:	297fffcc 	andi	r5,r5,65535
     56c:	00024e80 	call	24e8 <printf>
			IORD_16DIRECT(CAM_CTRL_BASE,CAM_BYTES_EACH_LINE_REG));
	printf("Nr. of lines each frame   : %d\n",
     570:	00804034 	movhi	r2,256
     574:	10841104 	addi	r2,r2,4164
     578:	1140002b 	ldhuio	r5,0(r2)
     57c:	01000074 	movhi	r4,1
     580:	21006604 	addi	r4,r4,408
     584:	297fffcc 	andi	r5,r5,65535
     588:	00024e80 	call	24e8 <printf>
			IORD_16DIRECT(CAM_CTRL_BASE,CAM_LINES_EACH_FRAME_REG));
	printf("Nr. of frames each second : %d\n",
     58c:	00804034 	movhi	r2,256
     590:	10841204 	addi	r2,r2,4168
     594:	1140002b 	ldhuio	r5,0(r2)
     598:	01000074 	movhi	r4,1
     59c:	21006e04 	addi	r4,r4,440
     5a0:	297fffcc 	andi	r5,r5,65535
			IORD_16DIRECT(CAM_CTRL_BASE,CAM_FRAME_RATE_REG));
}
     5a4:	dfc00017 	ldw	ra,0(sp)
     5a8:	dec00104 	addi	sp,sp,4
	} while ((control_reg&CAM_Profile_valid)==0);
	printf("Nr. of bytes each line    : %d\n",
			IORD_16DIRECT(CAM_CTRL_BASE,CAM_BYTES_EACH_LINE_REG));
	printf("Nr. of lines each frame   : %d\n",
			IORD_16DIRECT(CAM_CTRL_BASE,CAM_LINES_EACH_FRAME_REG));
	printf("Nr. of frames each second : %d\n",
     5ac:	00024e81 	jmpi	24e8 <printf>

000005b0 <cam_set_image_pointer>:
			IORD_16DIRECT(CAM_CTRL_BASE,CAM_FRAME_RATE_REG));
}

void cam_set_image_pointer(char pointer_id,
		                   void *memory_pointer) {
	switch (pointer_id) {
     5b0:	21003fcc 	andi	r4,r4,255
     5b4:	2100201c 	xori	r4,r4,128
     5b8:	213fe004 	addi	r4,r4,-128
     5bc:	00800044 	movi	r2,1
     5c0:	20801226 	beq	r4,r2,60c <cam_set_image_pointer+0x5c>
     5c4:	11000c0e 	bge	r2,r4,5f8 <cam_set_image_pointer+0x48>
     5c8:	00800084 	movi	r2,2
     5cc:	20800626 	beq	r4,r2,5e8 <cam_set_image_pointer+0x38>
     5d0:	008000c4 	movi	r2,3
     5d4:	2080111e 	bne	r4,r2,61c <cam_set_image_pointer+0x6c>
	            break;
	   case 1 : IOWR_32DIRECT(CAM_CTRL_BASE,CAM_ADDR_PNTR_2,(int)memory_pointer);
                break;
	   case 2 : IOWR_32DIRECT(CAM_CTRL_BASE,CAM_ADDR_PNTR_3,(int)memory_pointer);
                break;
	   case 3 : IOWR_32DIRECT(CAM_CTRL_BASE,CAM_ADDR_PNTR_4,(int)memory_pointer);
     5d8:	00804034 	movhi	r2,256
     5dc:	10841704 	addi	r2,r2,4188
     5e0:	11400035 	stwio	r5,0(r2)
     5e4:	f800283a 	ret
	switch (pointer_id) {
	   case 0 : IOWR_32DIRECT(CAM_CTRL_BASE,CAM_ADDR_PNTR_1,(int)memory_pointer);
	            break;
	   case 1 : IOWR_32DIRECT(CAM_CTRL_BASE,CAM_ADDR_PNTR_2,(int)memory_pointer);
                break;
	   case 2 : IOWR_32DIRECT(CAM_CTRL_BASE,CAM_ADDR_PNTR_3,(int)memory_pointer);
     5e8:	00804034 	movhi	r2,256
     5ec:	10841604 	addi	r2,r2,4184
     5f0:	11400035 	stwio	r5,0(r2)
                break;
     5f4:	f800283a 	ret
			IORD_16DIRECT(CAM_CTRL_BASE,CAM_FRAME_RATE_REG));
}

void cam_set_image_pointer(char pointer_id,
		                   void *memory_pointer) {
	switch (pointer_id) {
     5f8:	2000091e 	bne	r4,zero,620 <cam_set_image_pointer+0x70>
	   case 0 : IOWR_32DIRECT(CAM_CTRL_BASE,CAM_ADDR_PNTR_1,(int)memory_pointer);
     5fc:	00804034 	movhi	r2,256
     600:	10841404 	addi	r2,r2,4176
     604:	11400035 	stwio	r5,0(r2)
	            break;
     608:	f800283a 	ret
	   case 1 : IOWR_32DIRECT(CAM_CTRL_BASE,CAM_ADDR_PNTR_2,(int)memory_pointer);
     60c:	00804034 	movhi	r2,256
     610:	10841504 	addi	r2,r2,4180
     614:	11400035 	stwio	r5,0(r2)
                break;
     618:	f800283a 	ret
     61c:	f800283a 	ret
     620:	f800283a 	ret

00000624 <current_image_valid>:
	}
}

short current_image_valid() {
	unsigned short value;
	value = IORD_16DIRECT(CAM_CTRL_BASE,CAM_CONTROL_REG);
     624:	00804034 	movhi	r2,256
     628:	10841304 	addi	r2,r2,4172
     62c:	1080002b 	ldhuio	r2,0(r2)
	return (value&CAM_Current_Image_Valid);
}
     630:	1080800c 	andi	r2,r2,512
     634:	f800283a 	ret

00000638 <current_image_pointer>:

void *current_image_pointer() {
	return (void *)IORD_32DIRECT(CAM_CTRL_BASE,CAM_ADDR_PNTR_1);
     638:	00804034 	movhi	r2,256
     63c:	10841404 	addi	r2,r2,4176
}
     640:	10800037 	ldwio	r2,0(r2)
     644:	f800283a 	ret

00000648 <take_picture_blocking>:

void take_picture_blocking() {
	unsigned short value;
	IOWR_16DIRECT(CAM_CTRL_BASE,CAM_CONTROL_REG,CAM_Take_Picture);
     648:	00c04034 	movhi	r3,256
     64c:	18c41304 	addi	r3,r3,4172
     650:	00800204 	movi	r2,8
     654:	1880002d 	sthio	r2,0(r3)
	do {
		value = IORD_16DIRECT(CAM_CTRL_BASE,CAM_CONTROL_REG);
     658:	1880002b 	ldhuio	r2,0(r3)
	} while ((value&CAM_Busy)!= 0);
     65c:	1080020c 	andi	r2,r2,8
     660:	103ffd1e 	bne	r2,zero,658 <__alt_data_end+0xff000658>
}
     664:	f800283a 	ret

00000668 <enable_continues_mode>:

void enable_continues_mode() {
	IOWR_16DIRECT(CAM_CTRL_BASE,CAM_CONTROL_REG,CAM_Start_Continues);
     668:	00804034 	movhi	r2,256
     66c:	10841304 	addi	r2,r2,4172
     670:	00c00404 	movi	r3,16
     674:	10c0002d 	sthio	r3,0(r2)
     678:	f800283a 	ret

0000067c <new_image_available>:
}

char new_image_available() {
	unsigned short value;
	value = IORD_16DIRECT(CAM_CTRL_BASE,CAM_CONTROL_REG);
     67c:	00c04034 	movhi	r3,256
     680:	18c41304 	addi	r3,r3,4172
     684:	1880002b 	ldhuio	r2,0(r3)
	if ((value&CAM_IRQ_Generated)!=0) {
     688:	1080200c 	andi	r2,r2,128
     68c:	1000021e 	bne	r2,zero,698 <new_image_available+0x1c>
		IOWR_16DIRECT(CAM_CTRL_BASE,CAM_CONTROL_REG,CAM_Clear_IRQ);
		return 1;
	} else return 0;
     690:	0005883a 	mov	r2,zero
}
     694:	f800283a 	ret

char new_image_available() {
	unsigned short value;
	value = IORD_16DIRECT(CAM_CTRL_BASE,CAM_CONTROL_REG);
	if ((value&CAM_IRQ_Generated)!=0) {
		IOWR_16DIRECT(CAM_CTRL_BASE,CAM_CONTROL_REG,CAM_Clear_IRQ);
     698:	00804004 	movi	r2,256
     69c:	1880002d 	sthio	r2,0(r3)
		return 1;
     6a0:	00800044 	movi	r2,1
     6a4:	f800283a 	ret

000006a8 <DIPSW_get_value>:

#include <system.h>
#include <io.h>

unsigned char DIPSW_get_value() {
	return IORD_8DIRECT(PIO_0_BASE,0)^0xFF;
     6a8:	00804034 	movhi	r2,256
     6ac:	10842804 	addi	r2,r2,4256
     6b0:	10800023 	ldbuio	r2,0(r2)
}
     6b4:	0084303a 	nor	r2,zero,r2
     6b8:	f800283a 	ret

000006bc <conv_grayscale>:
int grayscale_width = 0;
int grayscape_height = 0;

void conv_grayscale(void *picture,
                int width,
                int height) {
     6bc:	defffd04 	addi	sp,sp,-12
     6c0:	dc400115 	stw	r17,4(sp)
  int k,gray;
  int kmax = (width*height)>>2;	// x>>2 <=> x/4
  unsigned int *pixels = (unsigned int *)picture;// , rgb;
  grayscale_width = width;
  grayscape_height = height;
  if (grayscale_array != NULL)
     6c4:	d0a6d117 	ldw	r2,-25788(gp)

void conv_grayscale(void *picture,
                int width,
                int height) {
  int k,gray;
  int kmax = (width*height)>>2;	// x>>2 <=> x/4
     6c8:	29a3383a 	mul	r17,r5,r6
int grayscale_width = 0;
int grayscape_height = 0;

void conv_grayscale(void *picture,
                int width,
                int height) {
     6cc:	dc000015 	stw	r16,0(sp)
     6d0:	dfc00215 	stw	ra,8(sp)
  int k,gray;
  int kmax = (width*height)>>2;	// x>>2 <=> x/4
  unsigned int *pixels = (unsigned int *)picture;// , rgb;
  grayscale_width = width;
     6d4:	d166d015 	stw	r5,-25792(gp)
  grayscape_height = height;
     6d8:	d1a6cf15 	stw	r6,-25796(gp)
int grayscale_width = 0;
int grayscape_height = 0;

void conv_grayscale(void *picture,
                int width,
                int height) {
     6dc:	2021883a 	mov	r16,r4
  int k,gray;
  int kmax = (width*height)>>2;	// x>>2 <=> x/4
     6e0:	8823d0ba 	srai	r17,r17,2
  unsigned int *pixels = (unsigned int *)picture;// , rgb;
  grayscale_width = width;
  grayscape_height = height;
  if (grayscale_array != NULL)
     6e4:	10000226 	beq	r2,zero,6f0 <conv_grayscale+0x34>
	  alt_uncached_free(grayscale_array);
     6e8:	1009883a 	mov	r4,r2
     6ec:	000ea740 	call	ea74 <alt_uncached_free>
  grayscale_array = (unsigned char *) alt_uncached_malloc(kmax);
     6f0:	8809883a 	mov	r4,r17
     6f4:	000ea840 	call	ea84 <alt_uncached_malloc>
     6f8:	d0a6d115 	stw	r2,-25788(gp)
  for(k = 0; k<kmax; k++)
     6fc:	04400f0e 	bge	zero,r17,73c <conv_grayscale+0x80>
     700:	8c4f883a 	add	r7,r17,r17
     704:	8009883a 	mov	r4,r16
     708:	81800104 	addi	r6,r16,4
     70c:	39cf883a 	add	r7,r7,r7
     710:	0005883a 	mov	r2,zero
  {
	  gray = ALT_CI_CUSTOM_GRAY_0(pixels[k*2], pixels[k*2+1]);
     714:	20c00017 	ldw	r3,0(r4)
     718:	31400017 	ldw	r5,0(r6)
     71c:	194bc032 	custom	0,r5,r3,r5
	  IOWR_32DIRECT(grayscale_array, k*4, gray);
     720:	d0e6d117 	ldw	r3,-25788(gp)
     724:	1887883a 	add	r3,r3,r2
     728:	19400035 	stwio	r5,0(r3)
     72c:	10800104 	addi	r2,r2,4
     730:	21000204 	addi	r4,r4,8
     734:	31800204 	addi	r6,r6,8
  grayscale_width = width;
  grayscape_height = height;
  if (grayscale_array != NULL)
	  alt_uncached_free(grayscale_array);
  grayscale_array = (unsigned char *) alt_uncached_malloc(kmax);
  for(k = 0; k<kmax; k++)
     738:	38bff61e 	bne	r7,r2,714 <__alt_data_end+0xff000714>
  {
	  gray = ALT_CI_CUSTOM_GRAY_0(pixels[k*2], pixels[k*2+1]);
	  IOWR_32DIRECT(grayscale_array, k*4, gray);
  }
}
     73c:	dfc00217 	ldw	ra,8(sp)
     740:	dc400117 	ldw	r17,4(sp)
     744:	dc000017 	ldw	r16,0(sp)
     748:	dec00304 	addi	sp,sp,12
     74c:	f800283a 	ret

00000750 <get_grayscale_width>:


int get_grayscale_width() {
	return grayscale_width;
}
     750:	d0a6d017 	ldw	r2,-25792(gp)
     754:	f800283a 	ret

00000758 <get_grayscale_height>:

int get_grayscale_height() {
	return grayscape_height;
}
     758:	d0a6cf17 	ldw	r2,-25796(gp)
     75c:	f800283a 	ret

00000760 <get_grayscale_picture>:

unsigned char *get_grayscale_picture() {
	return grayscale_array;
}
     760:	d0a6d117 	ldw	r2,-25788(gp)
     764:	f800283a 	ret

00000768 <i2c_busy_wait>:
#include "i2c.h"

void i2c_busy_wait() {
	int busy;
	do {
		busy = IORD_32DIRECT(I2C_CTRL_BASE,I2C_CONTROL_REG);
     768:	00c04034 	movhi	r3,256
     76c:	18c42704 	addi	r3,r3,4252
     770:	18800037 	ldwio	r2,0(r3)
	} while ((busy&(I2C_Busy_Flag|I2C_Autodetect_Busy_Flag))!=0);
     774:	108000cc 	andi	r2,r2,3
     778:	103ffd1e 	bne	r2,zero,770 <__alt_data_end+0xff000770>
}
     77c:	f800283a 	ret

00000780 <i2c_auto_detect>:
#include "i2c.h"

void i2c_busy_wait() {
	int busy;
	do {
		busy = IORD_32DIRECT(I2C_CTRL_BASE,I2C_CONTROL_REG);
     780:	01004034 	movhi	r4,256
     784:	21042704 	addi	r4,r4,4252
     788:	00c04034 	movhi	r3,256
     78c:	18c42704 	addi	r3,r3,4252
     790:	20800037 	ldwio	r2,0(r4)
	} while ((busy&(I2C_Busy_Flag|I2C_Autodetect_Busy_Flag))!=0);
     794:	108000cc 	andi	r2,r2,3
     798:	103ffb1e 	bne	r2,zero,788 <__alt_data_end+0xff000788>
}

void i2c_auto_detect() {
	int nrdef,loop,value;
    i2c_busy_wait();
    IOWR_32DIRECT(I2C_CTRL_BASE,I2C_CONTROL_REG,I2C_Autodetect);
     79c:	00800104 	movi	r2,4
     7a0:	18800035 	stwio	r2,0(r3)
#include "i2c.h"

void i2c_busy_wait() {
	int busy;
	do {
		busy = IORD_32DIRECT(I2C_CTRL_BASE,I2C_CONTROL_REG);
     7a4:	18800037 	ldwio	r2,0(r3)
	} while ((busy&(I2C_Busy_Flag|I2C_Autodetect_Busy_Flag))!=0);
     7a8:	108000cc 	andi	r2,r2,3
     7ac:	103ffd1e 	bne	r2,zero,7a4 <__alt_data_end+0xff0007a4>
void i2c_auto_detect() {
	int nrdef,loop,value;
    i2c_busy_wait();
    IOWR_32DIRECT(I2C_CTRL_BASE,I2C_CONTROL_REG,I2C_Autodetect);
    i2c_busy_wait();
    nrdef = IORD_32DIRECT(I2C_CTRL_BASE,I2C_ADDR_REG);
     7b0:	00804034 	movhi	r2,256
	do {
		busy = IORD_32DIRECT(I2C_CTRL_BASE,I2C_CONTROL_REG);
	} while ((busy&(I2C_Busy_Flag|I2C_Autodetect_Busy_Flag))!=0);
}

void i2c_auto_detect() {
     7b4:	defffc04 	addi	sp,sp,-16
	int nrdef,loop,value;
    i2c_busy_wait();
    IOWR_32DIRECT(I2C_CTRL_BASE,I2C_CONTROL_REG,I2C_Autodetect);
    i2c_busy_wait();
    nrdef = IORD_32DIRECT(I2C_CTRL_BASE,I2C_ADDR_REG);
     7b8:	10842504 	addi	r2,r2,4244
	do {
		busy = IORD_32DIRECT(I2C_CTRL_BASE,I2C_CONTROL_REG);
	} while ((busy&(I2C_Busy_Flag|I2C_Autodetect_Busy_Flag))!=0);
}

void i2c_auto_detect() {
     7bc:	dfc00315 	stw	ra,12(sp)
     7c0:	dc800215 	stw	r18,8(sp)
     7c4:	dc400115 	stw	r17,4(sp)
     7c8:	dc000015 	stw	r16,0(sp)
	int nrdef,loop,value;
    i2c_busy_wait();
    IOWR_32DIRECT(I2C_CTRL_BASE,I2C_CONTROL_REG,I2C_Autodetect);
    i2c_busy_wait();
    nrdef = IORD_32DIRECT(I2C_CTRL_BASE,I2C_ADDR_REG);
     7cc:	14800037 	ldwio	r18,0(r2)
    printf("Number of I2C devices detected: %d\n",nrdef);
     7d0:	01000074 	movhi	r4,1
     7d4:	21015604 	addi	r4,r4,1368
     7d8:	900b883a 	mov	r5,r18
    for (loop = 0 ; loop < nrdef ; loop++) {
     7dc:	0021883a 	mov	r16,zero
	int nrdef,loop,value;
    i2c_busy_wait();
    IOWR_32DIRECT(I2C_CTRL_BASE,I2C_CONTROL_REG,I2C_Autodetect);
    i2c_busy_wait();
    nrdef = IORD_32DIRECT(I2C_CTRL_BASE,I2C_ADDR_REG);
    printf("Number of I2C devices detected: %d\n",nrdef);
     7e0:	00024e80 	call	24e8 <printf>
    for (loop = 0 ; loop < nrdef ; loop++) {
     7e4:	04800a0e 	bge	zero,r18,810 <i2c_auto_detect+0x90>
    	IOWR_32DIRECT(I2C_CTRL_BASE,I2C_DEVICE_ID_REG,loop);
     7e8:	04404034 	movhi	r17,256
     7ec:	8c442404 	addi	r17,r17,4240
     7f0:	8c000035 	stwio	r16,0(r17)
    	value = IORD_32DIRECT(I2C_CTRL_BASE,I2C_DEVICE_ID_REG);
    	printf("Device nr. %d has Address: 0x%02X\n",loop,value);
     7f4:	89800037 	ldwio	r6,0(r17)
     7f8:	01000074 	movhi	r4,1
     7fc:	800b883a 	mov	r5,r16
     800:	21015f04 	addi	r4,r4,1404
    i2c_busy_wait();
    IOWR_32DIRECT(I2C_CTRL_BASE,I2C_CONTROL_REG,I2C_Autodetect);
    i2c_busy_wait();
    nrdef = IORD_32DIRECT(I2C_CTRL_BASE,I2C_ADDR_REG);
    printf("Number of I2C devices detected: %d\n",nrdef);
    for (loop = 0 ; loop < nrdef ; loop++) {
     804:	84000044 	addi	r16,r16,1
    	IOWR_32DIRECT(I2C_CTRL_BASE,I2C_DEVICE_ID_REG,loop);
    	value = IORD_32DIRECT(I2C_CTRL_BASE,I2C_DEVICE_ID_REG);
    	printf("Device nr. %d has Address: 0x%02X\n",loop,value);
     808:	00024e80 	call	24e8 <printf>
    i2c_busy_wait();
    IOWR_32DIRECT(I2C_CTRL_BASE,I2C_CONTROL_REG,I2C_Autodetect);
    i2c_busy_wait();
    nrdef = IORD_32DIRECT(I2C_CTRL_BASE,I2C_ADDR_REG);
    printf("Number of I2C devices detected: %d\n",nrdef);
    for (loop = 0 ; loop < nrdef ; loop++) {
     80c:	943ff81e 	bne	r18,r16,7f0 <__alt_data_end+0xff0007f0>
    	IOWR_32DIRECT(I2C_CTRL_BASE,I2C_DEVICE_ID_REG,loop);
    	value = IORD_32DIRECT(I2C_CTRL_BASE,I2C_DEVICE_ID_REG);
    	printf("Device nr. %d has Address: 0x%02X\n",loop,value);
    }
}
     810:	dfc00317 	ldw	ra,12(sp)
     814:	dc800217 	ldw	r18,8(sp)
     818:	dc400117 	ldw	r17,4(sp)
     81c:	dc000017 	ldw	r16,0(sp)
     820:	dec00404 	addi	sp,sp,16
     824:	f800283a 	ret

00000828 <i2c_short_read>:
#include "i2c.h"

void i2c_busy_wait() {
	int busy;
	do {
		busy = IORD_32DIRECT(I2C_CTRL_BASE,I2C_CONTROL_REG);
     828:	01804034 	movhi	r6,256
     82c:	31842704 	addi	r6,r6,4252
     830:	00c04034 	movhi	r3,256
     834:	18c42704 	addi	r3,r3,4252
     838:	30800037 	ldwio	r2,0(r6)
	} while ((busy&(I2C_Busy_Flag|I2C_Autodetect_Busy_Flag))!=0);
     83c:	108000cc 	andi	r2,r2,3
     840:	103ffb1e 	bne	r2,zero,830 <__alt_data_end+0xff000830>
}

unsigned int i2c_short_read(unsigned char device_id,
		                    unsigned short address) {
	i2c_busy_wait();
	IOWR_8DIRECT(I2C_CTRL_BASE,I2C_DEVICE_ID_REG,device_id);
     844:	00804034 	movhi	r2,256
     848:	21003fcc 	andi	r4,r4,255
     84c:	10842404 	addi	r2,r2,4240
     850:	11000025 	stbio	r4,0(r2)
	IOWR_16DIRECT(I2C_CTRL_BASE,I2C_ADDR_REG,address);
     854:	00804034 	movhi	r2,256
     858:	10842504 	addi	r2,r2,4244
     85c:	1140002d 	sthio	r5,0(r2)
	IOWR_8DIRECT(I2C_CTRL_BASE,I2C_CONTROL_REG,
     860:	008010c4 	movi	r2,67
     864:	18800025 	stbio	r2,0(r3)
#include "i2c.h"

void i2c_busy_wait() {
	int busy;
	do {
		busy = IORD_32DIRECT(I2C_CTRL_BASE,I2C_CONTROL_REG);
     868:	180b883a 	mov	r5,r3
     86c:	00c04034 	movhi	r3,256
     870:	18c42704 	addi	r3,r3,4252
     874:	28800037 	ldwio	r2,0(r5)
	} while ((busy&(I2C_Busy_Flag|I2C_Autodetect_Busy_Flag))!=0);
     878:	108000cc 	andi	r2,r2,3
     87c:	103ffb1e 	bne	r2,zero,86c <__alt_data_end+0xff00086c>
	IOWR_8DIRECT(I2C_CTRL_BASE,I2C_DEVICE_ID_REG,device_id);
	IOWR_16DIRECT(I2C_CTRL_BASE,I2C_ADDR_REG,address);
	IOWR_8DIRECT(I2C_CTRL_BASE,I2C_CONTROL_REG,
			     I2C_2Byte_Transfer|I2C_Start|I2C_Short_Transfer);
	i2c_busy_wait();
	IOWR_8DIRECT(I2C_CTRL_BASE,I2C_DEVICE_ID_REG,device_id+1);
     880:	00804034 	movhi	r2,256
     884:	21000044 	addi	r4,r4,1
     888:	10842404 	addi	r2,r2,4240
     88c:	11000025 	stbio	r4,0(r2)
	IOWR_8DIRECT(I2C_CTRL_BASE,I2C_CONTROL_REG,
     890:	00800884 	movi	r2,34
     894:	18800025 	stbio	r2,0(r3)
#include "i2c.h"

void i2c_busy_wait() {
	int busy;
	do {
		busy = IORD_32DIRECT(I2C_CTRL_BASE,I2C_CONTROL_REG);
     898:	18800037 	ldwio	r2,0(r3)
	} while ((busy&(I2C_Busy_Flag|I2C_Autodetect_Busy_Flag))!=0);
     89c:	108000cc 	andi	r2,r2,3
     8a0:	103ffd1e 	bne	r2,zero,898 <__alt_data_end+0xff000898>
	i2c_busy_wait();
	IOWR_8DIRECT(I2C_CTRL_BASE,I2C_DEVICE_ID_REG,device_id+1);
	IOWR_8DIRECT(I2C_CTRL_BASE,I2C_CONTROL_REG,
			     I2C_Start|I2C_4Byte_Read);
	i2c_busy_wait();
	return IORD_32DIRECT(I2C_CTRL_BASE,I2C_DATA_REG);
     8a4:	00804034 	movhi	r2,256
     8a8:	10842604 	addi	r2,r2,4248
}
     8ac:	10800037 	ldwio	r2,0(r2)
     8b0:	f800283a 	ret

000008b4 <i2c_short_write>:
#include "i2c.h"

void i2c_busy_wait() {
	int busy;
	do {
		busy = IORD_32DIRECT(I2C_CTRL_BASE,I2C_CONTROL_REG);
     8b4:	01c04034 	movhi	r7,256
     8b8:	39c42704 	addi	r7,r7,4252
     8bc:	00c04034 	movhi	r3,256
     8c0:	18c42704 	addi	r3,r3,4252
     8c4:	38800037 	ldwio	r2,0(r7)
	} while ((busy&(I2C_Busy_Flag|I2C_Autodetect_Busy_Flag))!=0);
     8c8:	108000cc 	andi	r2,r2,3
     8cc:	103ffb1e 	bne	r2,zero,8bc <__alt_data_end+0xff0008bc>

void i2c_short_write(unsigned char device_id,
		             unsigned short address,
		             unsigned short data) {
	i2c_busy_wait();
	IOWR_8DIRECT(I2C_CTRL_BASE,I2C_DEVICE_ID_REG,device_id);
     8d0:	00804034 	movhi	r2,256
     8d4:	10842404 	addi	r2,r2,4240
     8d8:	11000025 	stbio	r4,0(r2)
	IOWR_16DIRECT(I2C_CTRL_BASE,I2C_ADDR_REG,address);
     8dc:	00804034 	movhi	r2,256
     8e0:	10842504 	addi	r2,r2,4244
     8e4:	1140002d 	sthio	r5,0(r2)
	IOWR_16DIRECT(I2C_CTRL_BASE,I2C_DATA_REG,data);
     8e8:	00804034 	movhi	r2,256
     8ec:	10842604 	addi	r2,r2,4248
     8f0:	1180002d 	sthio	r6,0(r2)
	IOWR_8DIRECT(I2C_CTRL_BASE,I2C_CONTROL_REG,
     8f4:	00801084 	movi	r2,66
     8f8:	18800025 	stbio	r2,0(r3)
#include "i2c.h"

void i2c_busy_wait() {
	int busy;
	do {
		busy = IORD_32DIRECT(I2C_CTRL_BASE,I2C_CONTROL_REG);
     8fc:	18800037 	ldwio	r2,0(r3)
	} while ((busy&(I2C_Busy_Flag|I2C_Autodetect_Busy_Flag))!=0);
     900:	108000cc 	andi	r2,r2,3
     904:	103ffd1e 	bne	r2,zero,8fc <__alt_data_end+0xff0008fc>
	IOWR_16DIRECT(I2C_CTRL_BASE,I2C_ADDR_REG,address);
	IOWR_16DIRECT(I2C_CTRL_BASE,I2C_DATA_REG,data);
	IOWR_8DIRECT(I2C_CTRL_BASE,I2C_CONTROL_REG,
			     I2C_Start|I2C_Short_Transfer);
	i2c_busy_wait();
}
     908:	f800283a 	ret

0000090c <LCD_Write_Command>:

unsigned short LCD_width;
unsigned short LCD_height;

void LCD_Write_Command(int command) {
	IOWR_16DIRECT(LCD_CTRL_BASE,LCD_COMMAND_REG,command);
     90c:	00804034 	movhi	r2,256
     910:	10841804 	addi	r2,r2,4192
     914:	1100002d 	sthio	r4,0(r2)
	usleep(10);
     918:	01000284 	movi	r4,10
     91c:	000eae01 	jmpi	eae0 <usleep>

00000920 <LCD_Write_Data>:
}

void LCD_Write_Data(int data) {
	IOWR_16DIRECT(LCD_CTRL_BASE,LCD_DATA_REG,data);
     920:	00804034 	movhi	r2,256
     924:	10841904 	addi	r2,r2,4196
     928:	1100002d 	sthio	r4,0(r2)
	usleep(10);
     92c:	01000284 	movi	r4,10
     930:	000eae01 	jmpi	eae0 <usleep>

00000934 <init_LCD>:
}


void init_LCD() {
     934:	defff704 	addi	sp,sp,-36
	IOWR_16DIRECT(LCD_CTRL_BASE,LCD_CONTROL_REG,
     938:	00804034 	movhi	r2,256
	IOWR_16DIRECT(LCD_CTRL_BASE,LCD_DATA_REG,data);
	usleep(10);
}


void init_LCD() {
     93c:	dd400515 	stw	r21,20(sp)
     940:	dfc00815 	stw	ra,32(sp)
     944:	ddc00715 	stw	r23,28(sp)
     948:	dd800615 	stw	r22,24(sp)
     94c:	dd000415 	stw	r20,16(sp)
     950:	dcc00315 	stw	r19,12(sp)
     954:	dc800215 	stw	r18,8(sp)
     958:	dc400115 	stw	r17,4(sp)
     95c:	dc000015 	stw	r16,0(sp)
	IOWR_16DIRECT(LCD_CTRL_BASE,LCD_CONTROL_REG,
     960:	05400084 	movi	r21,2
     964:	10841a04 	addi	r2,r2,4200
     968:	1540002d 	sthio	r21,0(r2)

unsigned short LCD_width;
unsigned short LCD_height;

void LCD_Write_Command(int command) {
	IOWR_16DIRECT(LCD_CTRL_BASE,LCD_COMMAND_REG,command);
     96c:	04804034 	movhi	r18,256
     970:	94841804 	addi	r18,r18,4192
     974:	00800a04 	movi	r2,40
     978:	9080002d 	sthio	r2,0(r18)
	usleep(10);
     97c:	04000284 	movi	r16,10
     980:	8009883a 	mov	r4,r16
     984:	000eae00 	call	eae0 <usleep>

unsigned short LCD_width;
unsigned short LCD_height;

void LCD_Write_Command(int command) {
	IOWR_16DIRECT(LCD_CTRL_BASE,LCD_COMMAND_REG,command);
     988:	05c00444 	movi	r23,17
     98c:	95c0002d 	sthio	r23,0(r18)
	usleep(10);
     990:	8009883a 	mov	r4,r16
}

void LCD_Write_Data(int data) {
	IOWR_16DIRECT(LCD_CTRL_BASE,LCD_DATA_REG,data);
     994:	04404034 	movhi	r17,256
     998:	8c441904 	addi	r17,r17,4196
unsigned short LCD_width;
unsigned short LCD_height;

void LCD_Write_Command(int command) {
	IOWR_16DIRECT(LCD_CTRL_BASE,LCD_COMMAND_REG,command);
	usleep(10);
     99c:	000eae00 	call	eae0 <usleep>
}

void LCD_Write_Data(int data) {
	IOWR_16DIRECT(LCD_CTRL_BASE,LCD_DATA_REG,data);
     9a0:	0027883a 	mov	r19,zero
     9a4:	8cc0002d 	sthio	r19,0(r17)
	usleep(10);
     9a8:	8009883a 	mov	r4,r16
     9ac:	000eae00 	call	eae0 <usleep>

unsigned short LCD_width;
unsigned short LCD_height;

void LCD_Write_Command(int command) {
	IOWR_16DIRECT(LCD_CTRL_BASE,LCD_COMMAND_REG,command);
     9b0:	008032c4 	movi	r2,203
     9b4:	9080002d 	sthio	r2,0(r18)
	usleep(10);
     9b8:	8009883a 	mov	r4,r16
     9bc:	000eae00 	call	eae0 <usleep>
}

void LCD_Write_Data(int data) {
	IOWR_16DIRECT(LCD_CTRL_BASE,LCD_DATA_REG,data);
     9c0:	00800e44 	movi	r2,57
     9c4:	8880002d 	sthio	r2,0(r17)
	usleep(10);
     9c8:	8009883a 	mov	r4,r16
     9cc:	000eae00 	call	eae0 <usleep>
	IOWR_16DIRECT(LCD_CTRL_BASE,LCD_COMMAND_REG,command);
	usleep(10);
}

void LCD_Write_Data(int data) {
	IOWR_16DIRECT(LCD_CTRL_BASE,LCD_DATA_REG,data);
     9d0:	00800b04 	movi	r2,44
     9d4:	8880002d 	sthio	r2,0(r17)
	usleep(10);
     9d8:	8009883a 	mov	r4,r16
     9dc:	000eae00 	call	eae0 <usleep>
	IOWR_16DIRECT(LCD_CTRL_BASE,LCD_COMMAND_REG,command);
	usleep(10);
}

void LCD_Write_Data(int data) {
	IOWR_16DIRECT(LCD_CTRL_BASE,LCD_DATA_REG,data);
     9e0:	8cc0002d 	sthio	r19,0(r17)
	usleep(10);
     9e4:	8009883a 	mov	r4,r16
     9e8:	000eae00 	call	eae0 <usleep>
	IOWR_16DIRECT(LCD_CTRL_BASE,LCD_COMMAND_REG,command);
	usleep(10);
}

void LCD_Write_Data(int data) {
	IOWR_16DIRECT(LCD_CTRL_BASE,LCD_DATA_REG,data);
     9ec:	00800d04 	movi	r2,52
     9f0:	8880002d 	sthio	r2,0(r17)
	usleep(10);
     9f4:	8009883a 	mov	r4,r16
     9f8:	000eae00 	call	eae0 <usleep>
	IOWR_16DIRECT(LCD_CTRL_BASE,LCD_COMMAND_REG,command);
	usleep(10);
}

void LCD_Write_Data(int data) {
	IOWR_16DIRECT(LCD_CTRL_BASE,LCD_DATA_REG,data);
     9fc:	8d40002d 	sthio	r21,0(r17)
	usleep(10);
     a00:	8009883a 	mov	r4,r16
     a04:	000eae00 	call	eae0 <usleep>

unsigned short LCD_width;
unsigned short LCD_height;

void LCD_Write_Command(int command) {
	IOWR_16DIRECT(LCD_CTRL_BASE,LCD_COMMAND_REG,command);
     a08:	008033c4 	movi	r2,207
     a0c:	9080002d 	sthio	r2,0(r18)
	usleep(10);
     a10:	8009883a 	mov	r4,r16
     a14:	000eae00 	call	eae0 <usleep>
}

void LCD_Write_Data(int data) {
	IOWR_16DIRECT(LCD_CTRL_BASE,LCD_DATA_REG,data);
     a18:	8cc0002d 	sthio	r19,0(r17)
	usleep(10);
     a1c:	8009883a 	mov	r4,r16
     a20:	000eae00 	call	eae0 <usleep>
	IOWR_16DIRECT(LCD_CTRL_BASE,LCD_COMMAND_REG,command);
	usleep(10);
}

void LCD_Write_Data(int data) {
	IOWR_16DIRECT(LCD_CTRL_BASE,LCD_DATA_REG,data);
     a24:	05802044 	movi	r22,129
     a28:	8d80002d 	sthio	r22,0(r17)
	usleep(10);
     a2c:	8009883a 	mov	r4,r16
     a30:	000eae00 	call	eae0 <usleep>
	IOWR_16DIRECT(LCD_CTRL_BASE,LCD_COMMAND_REG,command);
	usleep(10);
}

void LCD_Write_Data(int data) {
	IOWR_16DIRECT(LCD_CTRL_BASE,LCD_DATA_REG,data);
     a34:	00800c04 	movi	r2,48
     a38:	8880002d 	sthio	r2,0(r17)
	usleep(10);
     a3c:	8009883a 	mov	r4,r16
     a40:	000eae00 	call	eae0 <usleep>

unsigned short LCD_width;
unsigned short LCD_height;

void LCD_Write_Command(int command) {
	IOWR_16DIRECT(LCD_CTRL_BASE,LCD_COMMAND_REG,command);
     a44:	00803a04 	movi	r2,232
     a48:	9080002d 	sthio	r2,0(r18)
	usleep(10);
     a4c:	8009883a 	mov	r4,r16
     a50:	000eae00 	call	eae0 <usleep>
}

void LCD_Write_Data(int data) {
	IOWR_16DIRECT(LCD_CTRL_BASE,LCD_DATA_REG,data);
     a54:	00802144 	movi	r2,133
     a58:	8880002d 	sthio	r2,0(r17)
	usleep(10);
     a5c:	8009883a 	mov	r4,r16
     a60:	000eae00 	call	eae0 <usleep>
	IOWR_16DIRECT(LCD_CTRL_BASE,LCD_COMMAND_REG,command);
	usleep(10);
}

void LCD_Write_Data(int data) {
	IOWR_16DIRECT(LCD_CTRL_BASE,LCD_DATA_REG,data);
     a64:	05000044 	movi	r20,1
     a68:	8d00002d 	sthio	r20,0(r17)
	usleep(10);
     a6c:	8009883a 	mov	r4,r16
     a70:	000eae00 	call	eae0 <usleep>
	IOWR_16DIRECT(LCD_CTRL_BASE,LCD_COMMAND_REG,command);
	usleep(10);
}

void LCD_Write_Data(int data) {
	IOWR_16DIRECT(LCD_CTRL_BASE,LCD_DATA_REG,data);
     a74:	00801e44 	movi	r2,121
     a78:	8880002d 	sthio	r2,0(r17)
	usleep(10);
     a7c:	8009883a 	mov	r4,r16
     a80:	000eae00 	call	eae0 <usleep>

unsigned short LCD_width;
unsigned short LCD_height;

void LCD_Write_Command(int command) {
	IOWR_16DIRECT(LCD_CTRL_BASE,LCD_COMMAND_REG,command);
     a84:	00803a84 	movi	r2,234
     a88:	9080002d 	sthio	r2,0(r18)
	usleep(10);
     a8c:	8009883a 	mov	r4,r16
     a90:	000eae00 	call	eae0 <usleep>
}

void LCD_Write_Data(int data) {
	IOWR_16DIRECT(LCD_CTRL_BASE,LCD_DATA_REG,data);
     a94:	8cc0002d 	sthio	r19,0(r17)
	usleep(10);
     a98:	8009883a 	mov	r4,r16
     a9c:	000eae00 	call	eae0 <usleep>
	IOWR_16DIRECT(LCD_CTRL_BASE,LCD_COMMAND_REG,command);
	usleep(10);
}

void LCD_Write_Data(int data) {
	IOWR_16DIRECT(LCD_CTRL_BASE,LCD_DATA_REG,data);
     aa0:	8cc0002d 	sthio	r19,0(r17)
	usleep(10);
     aa4:	8009883a 	mov	r4,r16
     aa8:	000eae00 	call	eae0 <usleep>
	IOWR_16DIRECT(LCD_CTRL_BASE,LCD_COMMAND_REG,command);
	usleep(10);
}

void LCD_Write_Data(int data) {
	IOWR_16DIRECT(LCD_CTRL_BASE,LCD_DATA_REG,data);
     aac:	00801904 	movi	r2,100
     ab0:	8880002d 	sthio	r2,0(r17)
	usleep(10);
     ab4:	8009883a 	mov	r4,r16
     ab8:	000eae00 	call	eae0 <usleep>
	IOWR_16DIRECT(LCD_CTRL_BASE,LCD_COMMAND_REG,command);
	usleep(10);
}

void LCD_Write_Data(int data) {
	IOWR_16DIRECT(LCD_CTRL_BASE,LCD_DATA_REG,data);
     abc:	008000c4 	movi	r2,3
     ac0:	8880002d 	sthio	r2,0(r17)
	usleep(10);
     ac4:	8009883a 	mov	r4,r16
     ac8:	000eae00 	call	eae0 <usleep>
	IOWR_16DIRECT(LCD_CTRL_BASE,LCD_COMMAND_REG,command);
	usleep(10);
}

void LCD_Write_Data(int data) {
	IOWR_16DIRECT(LCD_CTRL_BASE,LCD_DATA_REG,data);
     acc:	00800484 	movi	r2,18
     ad0:	8880002d 	sthio	r2,0(r17)
	usleep(10);
     ad4:	8009883a 	mov	r4,r16
     ad8:	000eae00 	call	eae0 <usleep>
	IOWR_16DIRECT(LCD_CTRL_BASE,LCD_COMMAND_REG,command);
	usleep(10);
}

void LCD_Write_Data(int data) {
	IOWR_16DIRECT(LCD_CTRL_BASE,LCD_DATA_REG,data);
     adc:	8d80002d 	sthio	r22,0(r17)
	usleep(10);
     ae0:	8009883a 	mov	r4,r16
     ae4:	000eae00 	call	eae0 <usleep>

unsigned short LCD_width;
unsigned short LCD_height;

void LCD_Write_Command(int command) {
	IOWR_16DIRECT(LCD_CTRL_BASE,LCD_COMMAND_REG,command);
     ae8:	00803dc4 	movi	r2,247
     aec:	9080002d 	sthio	r2,0(r18)
	usleep(10);
     af0:	8009883a 	mov	r4,r16
     af4:	000eae00 	call	eae0 <usleep>
}

void LCD_Write_Data(int data) {
	IOWR_16DIRECT(LCD_CTRL_BASE,LCD_DATA_REG,data);
     af8:	00800804 	movi	r2,32
     afc:	8880002d 	sthio	r2,0(r17)
	usleep(10);
     b00:	8009883a 	mov	r4,r16
     b04:	000eae00 	call	eae0 <usleep>

unsigned short LCD_width;
unsigned short LCD_height;

void LCD_Write_Command(int command) {
	IOWR_16DIRECT(LCD_CTRL_BASE,LCD_COMMAND_REG,command);
     b08:	00803004 	movi	r2,192
     b0c:	9080002d 	sthio	r2,0(r18)
	usleep(10);
     b10:	8009883a 	mov	r4,r16
     b14:	000eae00 	call	eae0 <usleep>
}

void LCD_Write_Data(int data) {
	IOWR_16DIRECT(LCD_CTRL_BASE,LCD_DATA_REG,data);
     b18:	05800984 	movi	r22,38
     b1c:	8d80002d 	sthio	r22,0(r17)
	usleep(10);
     b20:	8009883a 	mov	r4,r16
     b24:	000eae00 	call	eae0 <usleep>
	IOWR_16DIRECT(LCD_CTRL_BASE,LCD_COMMAND_REG,command);
	usleep(10);
}

void LCD_Write_Data(int data) {
	IOWR_16DIRECT(LCD_CTRL_BASE,LCD_DATA_REG,data);
     b28:	00800104 	movi	r2,4
     b2c:	8880002d 	sthio	r2,0(r17)
	usleep(10);
     b30:	8009883a 	mov	r4,r16
     b34:	000eae00 	call	eae0 <usleep>

unsigned short LCD_width;
unsigned short LCD_height;

void LCD_Write_Command(int command) {
	IOWR_16DIRECT(LCD_CTRL_BASE,LCD_COMMAND_REG,command);
     b38:	00803044 	movi	r2,193
     b3c:	9080002d 	sthio	r2,0(r18)
	usleep(10);
     b40:	8009883a 	mov	r4,r16
     b44:	000eae00 	call	eae0 <usleep>
}

void LCD_Write_Data(int data) {
	IOWR_16DIRECT(LCD_CTRL_BASE,LCD_DATA_REG,data);
     b48:	8dc0002d 	sthio	r23,0(r17)
	usleep(10);
     b4c:	8009883a 	mov	r4,r16
     b50:	000eae00 	call	eae0 <usleep>

unsigned short LCD_width;
unsigned short LCD_height;

void LCD_Write_Command(int command) {
	IOWR_16DIRECT(LCD_CTRL_BASE,LCD_COMMAND_REG,command);
     b54:	00803144 	movi	r2,197
     b58:	9080002d 	sthio	r2,0(r18)
	usleep(10);
     b5c:	8009883a 	mov	r4,r16
     b60:	000eae00 	call	eae0 <usleep>
}

void LCD_Write_Data(int data) {
	IOWR_16DIRECT(LCD_CTRL_BASE,LCD_DATA_REG,data);
     b64:	00800d44 	movi	r2,53
     b68:	8880002d 	sthio	r2,0(r17)
	usleep(10);
     b6c:	8009883a 	mov	r4,r16
     b70:	000eae00 	call	eae0 <usleep>
	IOWR_16DIRECT(LCD_CTRL_BASE,LCD_COMMAND_REG,command);
	usleep(10);
}

void LCD_Write_Data(int data) {
	IOWR_16DIRECT(LCD_CTRL_BASE,LCD_DATA_REG,data);
     b74:	00800f84 	movi	r2,62
     b78:	8880002d 	sthio	r2,0(r17)
	usleep(10);
     b7c:	8009883a 	mov	r4,r16
     b80:	000eae00 	call	eae0 <usleep>

unsigned short LCD_width;
unsigned short LCD_height;

void LCD_Write_Command(int command) {
	IOWR_16DIRECT(LCD_CTRL_BASE,LCD_COMMAND_REG,command);
     b84:	008031c4 	movi	r2,199
     b88:	9080002d 	sthio	r2,0(r18)
	usleep(10);
     b8c:	8009883a 	mov	r4,r16
     b90:	000eae00 	call	eae0 <usleep>
}

void LCD_Write_Data(int data) {
	IOWR_16DIRECT(LCD_CTRL_BASE,LCD_DATA_REG,data);
     b94:	00802f84 	movi	r2,190
     b98:	8880002d 	sthio	r2,0(r17)
	usleep(10);
     b9c:	8009883a 	mov	r4,r16
     ba0:	000eae00 	call	eae0 <usleep>

unsigned short LCD_width;
unsigned short LCD_height;

void LCD_Write_Command(int command) {
	IOWR_16DIRECT(LCD_CTRL_BASE,LCD_COMMAND_REG,command);
     ba4:	00802c44 	movi	r2,177
     ba8:	9080002d 	sthio	r2,0(r18)
	usleep(10);
     bac:	8009883a 	mov	r4,r16
     bb0:	000eae00 	call	eae0 <usleep>
}

void LCD_Write_Data(int data) {
	IOWR_16DIRECT(LCD_CTRL_BASE,LCD_DATA_REG,data);
     bb4:	8cc0002d 	sthio	r19,0(r17)
	usleep(10);
     bb8:	8009883a 	mov	r4,r16
     bbc:	000eae00 	call	eae0 <usleep>
	IOWR_16DIRECT(LCD_CTRL_BASE,LCD_COMMAND_REG,command);
	usleep(10);
}

void LCD_Write_Data(int data) {
	IOWR_16DIRECT(LCD_CTRL_BASE,LCD_DATA_REG,data);
     bc0:	00800404 	movi	r2,16
     bc4:	8880002d 	sthio	r2,0(r17)
	usleep(10);
     bc8:	8009883a 	mov	r4,r16
     bcc:	000eae00 	call	eae0 <usleep>

unsigned short LCD_width;
unsigned short LCD_height;

void LCD_Write_Command(int command) {
	IOWR_16DIRECT(LCD_CTRL_BASE,LCD_COMMAND_REG,command);
     bd0:	00800e84 	movi	r2,58
     bd4:	9080002d 	sthio	r2,0(r18)
	usleep(10);
     bd8:	8009883a 	mov	r4,r16
     bdc:	000eae00 	call	eae0 <usleep>
}

void LCD_Write_Data(int data) {
	IOWR_16DIRECT(LCD_CTRL_BASE,LCD_DATA_REG,data);
     be0:	00801544 	movi	r2,85
     be4:	8880002d 	sthio	r2,0(r17)
	usleep(10);
     be8:	8009883a 	mov	r4,r16
     bec:	000eae00 	call	eae0 <usleep>

unsigned short LCD_width;
unsigned short LCD_height;

void LCD_Write_Command(int command) {
	IOWR_16DIRECT(LCD_CTRL_BASE,LCD_COMMAND_REG,command);
     bf0:	00802d84 	movi	r2,182
     bf4:	9080002d 	sthio	r2,0(r18)
	usleep(10);
     bf8:	8009883a 	mov	r4,r16
     bfc:	000eae00 	call	eae0 <usleep>
}

void LCD_Write_Data(int data) {
	IOWR_16DIRECT(LCD_CTRL_BASE,LCD_DATA_REG,data);
     c00:	8c00002d 	sthio	r16,0(r17)
	usleep(10);
     c04:	8009883a 	mov	r4,r16
     c08:	000eae00 	call	eae0 <usleep>
	IOWR_16DIRECT(LCD_CTRL_BASE,LCD_COMMAND_REG,command);
	usleep(10);
}

void LCD_Write_Data(int data) {
	IOWR_16DIRECT(LCD_CTRL_BASE,LCD_DATA_REG,data);
     c0c:	00802884 	movi	r2,162
     c10:	8880002d 	sthio	r2,0(r17)
	usleep(10);
     c14:	8009883a 	mov	r4,r16
     c18:	000eae00 	call	eae0 <usleep>

unsigned short LCD_width;
unsigned short LCD_height;

void LCD_Write_Command(int command) {
	IOWR_16DIRECT(LCD_CTRL_BASE,LCD_COMMAND_REG,command);
     c1c:	00803c84 	movi	r2,242
     c20:	9080002d 	sthio	r2,0(r18)
	usleep(10);
     c24:	8009883a 	mov	r4,r16
     c28:	000eae00 	call	eae0 <usleep>
}

void LCD_Write_Data(int data) {
	IOWR_16DIRECT(LCD_CTRL_BASE,LCD_DATA_REG,data);
     c2c:	8d40002d 	sthio	r21,0(r17)
	usleep(10);
     c30:	8009883a 	mov	r4,r16
     c34:	000eae00 	call	eae0 <usleep>

unsigned short LCD_width;
unsigned short LCD_height;

void LCD_Write_Command(int command) {
	IOWR_16DIRECT(LCD_CTRL_BASE,LCD_COMMAND_REG,command);
     c38:	9580002d 	sthio	r22,0(r18)
	usleep(10);
     c3c:	8009883a 	mov	r4,r16
     c40:	000eae00 	call	eae0 <usleep>
}

void LCD_Write_Data(int data) {
	IOWR_16DIRECT(LCD_CTRL_BASE,LCD_DATA_REG,data);
     c44:	8d00002d 	sthio	r20,0(r17)
	usleep(10);
     c48:	8009883a 	mov	r4,r16
     c4c:	000eae00 	call	eae0 <usleep>

unsigned short LCD_width;
unsigned short LCD_height;

void LCD_Write_Command(int command) {
	IOWR_16DIRECT(LCD_CTRL_BASE,LCD_COMMAND_REG,command);
     c50:	00800d84 	movi	r2,54
     c54:	9080002d 	sthio	r2,0(r18)
	usleep(10);
     c58:	8009883a 	mov	r4,r16
     c5c:	000eae00 	call	eae0 <usleep>
}

void LCD_Write_Data(int data) {
	IOWR_16DIRECT(LCD_CTRL_BASE,LCD_DATA_REG,data);
     c60:	8cc0002d 	sthio	r19,0(r17)
	usleep(10);
     c64:	8009883a 	mov	r4,r16
     c68:	000eae00 	call	eae0 <usleep>

unsigned short LCD_width;
unsigned short LCD_height;

void LCD_Write_Command(int command) {
	IOWR_16DIRECT(LCD_CTRL_BASE,LCD_COMMAND_REG,command);
     c6c:	00800a84 	movi	r2,42
     c70:	9080002d 	sthio	r2,0(r18)
	usleep(10);
     c74:	8009883a 	mov	r4,r16
     c78:	000eae00 	call	eae0 <usleep>
}

void LCD_Write_Data(int data) {
	IOWR_16DIRECT(LCD_CTRL_BASE,LCD_DATA_REG,data);
     c7c:	8cc0002d 	sthio	r19,0(r17)
	usleep(10);
     c80:	8009883a 	mov	r4,r16
     c84:	000eae00 	call	eae0 <usleep>
	IOWR_16DIRECT(LCD_CTRL_BASE,LCD_COMMAND_REG,command);
	usleep(10);
}

void LCD_Write_Data(int data) {
	IOWR_16DIRECT(LCD_CTRL_BASE,LCD_DATA_REG,data);
     c88:	8cc0002d 	sthio	r19,0(r17)
	usleep(10);
     c8c:	8009883a 	mov	r4,r16
     c90:	000eae00 	call	eae0 <usleep>
	IOWR_16DIRECT(LCD_CTRL_BASE,LCD_COMMAND_REG,command);
	usleep(10);
}

void LCD_Write_Data(int data) {
	IOWR_16DIRECT(LCD_CTRL_BASE,LCD_DATA_REG,data);
     c94:	8cc0002d 	sthio	r19,0(r17)
	usleep(10);
     c98:	8009883a 	mov	r4,r16
     c9c:	000eae00 	call	eae0 <usleep>
	IOWR_16DIRECT(LCD_CTRL_BASE,LCD_COMMAND_REG,command);
	usleep(10);
}

void LCD_Write_Data(int data) {
	IOWR_16DIRECT(LCD_CTRL_BASE,LCD_DATA_REG,data);
     ca0:	00803bc4 	movi	r2,239
     ca4:	8880002d 	sthio	r2,0(r17)
	usleep(10);
     ca8:	8009883a 	mov	r4,r16
     cac:	000eae00 	call	eae0 <usleep>

unsigned short LCD_width;
unsigned short LCD_height;

void LCD_Write_Command(int command) {
	IOWR_16DIRECT(LCD_CTRL_BASE,LCD_COMMAND_REG,command);
     cb0:	00800ac4 	movi	r2,43
     cb4:	9080002d 	sthio	r2,0(r18)
	usleep(10);
     cb8:	8009883a 	mov	r4,r16
     cbc:	000eae00 	call	eae0 <usleep>
}

void LCD_Write_Data(int data) {
	IOWR_16DIRECT(LCD_CTRL_BASE,LCD_DATA_REG,data);
     cc0:	8cc0002d 	sthio	r19,0(r17)
	usleep(10);
     cc4:	8009883a 	mov	r4,r16
     cc8:	000eae00 	call	eae0 <usleep>
	IOWR_16DIRECT(LCD_CTRL_BASE,LCD_COMMAND_REG,command);
	usleep(10);
}

void LCD_Write_Data(int data) {
	IOWR_16DIRECT(LCD_CTRL_BASE,LCD_DATA_REG,data);
     ccc:	8cc0002d 	sthio	r19,0(r17)
	usleep(10);
     cd0:	8009883a 	mov	r4,r16
     cd4:	000eae00 	call	eae0 <usleep>
	IOWR_16DIRECT(LCD_CTRL_BASE,LCD_COMMAND_REG,command);
	usleep(10);
}

void LCD_Write_Data(int data) {
	IOWR_16DIRECT(LCD_CTRL_BASE,LCD_DATA_REG,data);
     cd8:	8d00002d 	sthio	r20,0(r17)
	usleep(10);
     cdc:	8009883a 	mov	r4,r16
     ce0:	000eae00 	call	eae0 <usleep>
	IOWR_16DIRECT(LCD_CTRL_BASE,LCD_COMMAND_REG,command);
	usleep(10);
}

void LCD_Write_Data(int data) {
	IOWR_16DIRECT(LCD_CTRL_BASE,LCD_DATA_REG,data);
     ce4:	00800fc4 	movi	r2,63
     ce8:	8880002d 	sthio	r2,0(r17)
	usleep(10);
     cec:	8009883a 	mov	r4,r16
     cf0:	000eae00 	call	eae0 <usleep>
	LCD_Write_Command(0x002B);	//pageaddressset
	LCD_Write_Data(0x0000);
	LCD_Write_Data(0x0000);		//start0x0000
	LCD_Write_Data(0x0001);
	LCD_Write_Data(0x003F);		//end0x013F
	IOWR_32DIRECT(LCD_CTRL_BASE,LCD_NR_PIX_LINE_REG,240);
     cf4:	00c04034 	movhi	r3,256
     cf8:	00803c04 	movi	r2,240
     cfc:	18c41d04 	addi	r3,r3,4212
     d00:	18800035 	stwio	r2,0(r3)
	LCD_width = 240;
     d04:	d0a6d28d 	sth	r2,-25782(gp)
	LCD_height = 320;
     d08:	00805004 	movi	r2,320
     d0c:	d0a6d20d 	sth	r2,-25784(gp)

unsigned short LCD_width;
unsigned short LCD_height;

void LCD_Write_Command(int command) {
	IOWR_16DIRECT(LCD_CTRL_BASE,LCD_COMMAND_REG,command);
     d10:	00800a44 	movi	r2,41
     d14:	9080002d 	sthio	r2,0(r18)
	usleep(10);
     d18:	8009883a 	mov	r4,r16
	LCD_height = 320;


	LCD_Write_Command(0x0029);

}
     d1c:	dfc00817 	ldw	ra,32(sp)
     d20:	ddc00717 	ldw	r23,28(sp)
     d24:	dd800617 	ldw	r22,24(sp)
     d28:	dd400517 	ldw	r21,20(sp)
     d2c:	dd000417 	ldw	r20,16(sp)
     d30:	dcc00317 	ldw	r19,12(sp)
     d34:	dc800217 	ldw	r18,8(sp)
     d38:	dc400117 	ldw	r17,4(sp)
     d3c:	dc000017 	ldw	r16,0(sp)
     d40:	dec00904 	addi	sp,sp,36
unsigned short LCD_width;
unsigned short LCD_height;

void LCD_Write_Command(int command) {
	IOWR_16DIRECT(LCD_CTRL_BASE,LCD_COMMAND_REG,command);
	usleep(10);
     d44:	000eae01 	jmpi	eae0 <usleep>

00000d48 <transfer_LCD_no_dma>:

}

void transfer_LCD_no_dma( void* array,
		                  int width,
		                  int height) {
     d48:	defffb04 	addi	sp,sp,-20
	unsigned short *data_array = (unsigned short *)array;
	unsigned int pixels;
	IOWR_32DIRECT(LCD_CTRL_BASE,LCD_Pict_width_reg,width);
     d4c:	00804034 	movhi	r2,256

}

void transfer_LCD_no_dma( void* array,
		                  int width,
		                  int height) {
     d50:	dc000015 	stw	r16,0(sp)
     d54:	dfc00415 	stw	ra,16(sp)
     d58:	dcc00315 	stw	r19,12(sp)
     d5c:	dc800215 	stw	r18,8(sp)
     d60:	dc400115 	stw	r17,4(sp)
     d64:	2021883a 	mov	r16,r4
	unsigned short *data_array = (unsigned short *)array;
	unsigned int pixels;
	IOWR_32DIRECT(LCD_CTRL_BASE,LCD_Pict_width_reg,width);
     d68:	10841e04 	addi	r2,r2,4216
     d6c:	11400035 	stwio	r5,0(r2)

unsigned short LCD_width;
unsigned short LCD_height;

void LCD_Write_Command(int command) {
	IOWR_16DIRECT(LCD_CTRL_BASE,LCD_COMMAND_REG,command);
     d70:	00804034 	movhi	r2,256
     d74:	10841804 	addi	r2,r2,4192
     d78:	00c00b04 	movi	r3,44
     d7c:	10c0002d 	sthio	r3,0(r2)
		                  int height) {
	unsigned short *data_array = (unsigned short *)array;
	unsigned int pixels;
	IOWR_32DIRECT(LCD_CTRL_BASE,LCD_Pict_width_reg,width);
	LCD_Write_Command(0x002C); 	//command to begin writing to frame memory
	for (pixels = 0 ; pixels < width*height ; pixels++)
     d80:	29a5383a 	mul	r18,r5,r6
unsigned short LCD_width;
unsigned short LCD_height;

void LCD_Write_Command(int command) {
	IOWR_16DIRECT(LCD_CTRL_BASE,LCD_COMMAND_REG,command);
	usleep(10);
     d84:	01000284 	movi	r4,10
     d88:	000eae00 	call	eae0 <usleep>
		                  int height) {
	unsigned short *data_array = (unsigned short *)array;
	unsigned int pixels;
	IOWR_32DIRECT(LCD_CTRL_BASE,LCD_Pict_width_reg,width);
	LCD_Write_Command(0x002C); 	//command to begin writing to frame memory
	for (pixels = 0 ; pixels < width*height ; pixels++)
     d8c:	90000a26 	beq	r18,zero,db8 <transfer_LCD_no_dma+0x70>
	IOWR_16DIRECT(LCD_CTRL_BASE,LCD_COMMAND_REG,command);
	usleep(10);
}

void LCD_Write_Data(int data) {
	IOWR_16DIRECT(LCD_CTRL_BASE,LCD_DATA_REG,data);
     d90:	04c04034 	movhi	r19,256
     d94:	9cc41904 	addi	r19,r19,4196
		                  int height) {
	unsigned short *data_array = (unsigned short *)array;
	unsigned int pixels;
	IOWR_32DIRECT(LCD_CTRL_BASE,LCD_Pict_width_reg,width);
	LCD_Write_Command(0x002C); 	//command to begin writing to frame memory
	for (pixels = 0 ; pixels < width*height ; pixels++)
     d98:	0023883a 	mov	r17,zero
	IOWR_16DIRECT(LCD_CTRL_BASE,LCD_COMMAND_REG,command);
	usleep(10);
}

void LCD_Write_Data(int data) {
	IOWR_16DIRECT(LCD_CTRL_BASE,LCD_DATA_REG,data);
     d9c:	8080000b 	ldhu	r2,0(r16)
     da0:	9880002d 	sthio	r2,0(r19)
	usleep(10);
     da4:	01000284 	movi	r4,10
		                  int height) {
	unsigned short *data_array = (unsigned short *)array;
	unsigned int pixels;
	IOWR_32DIRECT(LCD_CTRL_BASE,LCD_Pict_width_reg,width);
	LCD_Write_Command(0x002C); 	//command to begin writing to frame memory
	for (pixels = 0 ; pixels < width*height ; pixels++)
     da8:	8c400044 	addi	r17,r17,1
	usleep(10);
}

void LCD_Write_Data(int data) {
	IOWR_16DIRECT(LCD_CTRL_BASE,LCD_DATA_REG,data);
	usleep(10);
     dac:	000eae00 	call	eae0 <usleep>
     db0:	84000084 	addi	r16,r16,2
		                  int height) {
	unsigned short *data_array = (unsigned short *)array;
	unsigned int pixels;
	IOWR_32DIRECT(LCD_CTRL_BASE,LCD_Pict_width_reg,width);
	LCD_Write_Command(0x002C); 	//command to begin writing to frame memory
	for (pixels = 0 ; pixels < width*height ; pixels++)
     db4:	8cbff91e 	bne	r17,r18,d9c <__alt_data_end+0xff000d9c>
		LCD_Write_Data(data_array[pixels]);
}
     db8:	dfc00417 	ldw	ra,16(sp)
     dbc:	dcc00317 	ldw	r19,12(sp)
     dc0:	dc800217 	ldw	r18,8(sp)
     dc4:	dc400117 	ldw	r17,4(sp)
     dc8:	dc000017 	ldw	r16,0(sp)
     dcc:	dec00504 	addi	sp,sp,20
     dd0:	f800283a 	ret

00000dd4 <transfer_LCD_with_dma>:

void transfer_LCD_with_dma(void *array,
		                   int width,
		                   int height,
		                   char grayscale) {
	unsigned short real_height = (height > LCD_height) ? LCD_height : height;
     dd4:	d0a6d20b 	ldhu	r2,-25784(gp)
     dd8:	3080010e 	bge	r6,r2,de0 <transfer_LCD_with_dma+0xc>
     ddc:	3005883a 	mov	r2,r6
	unsigned short real_width = (width > LCD_width) ? LCD_width : width;
     de0:	d0e6d28b 	ldhu	r3,-25782(gp)
     de4:	28c0010e 	bge	r5,r3,dec <transfer_LCD_with_dma+0x18>
     de8:	2807883a 	mov	r3,r5
	IOWR_32DIRECT(LCD_CTRL_BASE,LCD_Pict_width_reg,width);
     dec:	01804034 	movhi	r6,256
     df0:	31841e04 	addi	r6,r6,4216
     df4:	31400035 	stwio	r5,0(r6)
	IOWR_32DIRECT(LCD_CTRL_BASE,LCD_IMAGE_POINTER_REG,(int)array);
     df8:	01404034 	movhi	r5,256
     dfc:	29441b04 	addi	r5,r5,4204
     e00:	29000035 	stwio	r4,0(r5)
	IOWR_32DIRECT(LCD_CTRL_BASE,LCD_IMAGE_SIZE_REG,real_width*real_height);
     e04:	18ffffcc 	andi	r3,r3,65535
     e08:	10bfffcc 	andi	r2,r2,65535
     e0c:	1885383a 	mul	r2,r3,r2
     e10:	00c04034 	movhi	r3,256
     e14:	18c41c04 	addi	r3,r3,4208
     e18:	18800035 	stwio	r2,0(r3)
	if (grayscale==0)
     e1c:	39c03fcc 	andi	r7,r7,255
     e20:	39c0201c 	xori	r7,r7,128
		IOWR_16DIRECT(LCD_CTRL_BASE,LCD_CONTROL_REG,
     e24:	00804034 	movhi	r2,256
	unsigned short real_height = (height > LCD_height) ? LCD_height : height;
	unsigned short real_width = (width > LCD_width) ? LCD_width : width;
	IOWR_32DIRECT(LCD_CTRL_BASE,LCD_Pict_width_reg,width);
	IOWR_32DIRECT(LCD_CTRL_BASE,LCD_IMAGE_POINTER_REG,(int)array);
	IOWR_32DIRECT(LCD_CTRL_BASE,LCD_IMAGE_SIZE_REG,real_width*real_height);
	if (grayscale==0)
     e28:	39ffe004 	addi	r7,r7,-128
		IOWR_16DIRECT(LCD_CTRL_BASE,LCD_CONTROL_REG,
     e2c:	10841a04 	addi	r2,r2,4200
	unsigned short real_height = (height > LCD_height) ? LCD_height : height;
	unsigned short real_width = (width > LCD_width) ? LCD_width : width;
	IOWR_32DIRECT(LCD_CTRL_BASE,LCD_Pict_width_reg,width);
	IOWR_32DIRECT(LCD_CTRL_BASE,LCD_IMAGE_POINTER_REG,(int)array);
	IOWR_32DIRECT(LCD_CTRL_BASE,LCD_IMAGE_SIZE_REG,real_width*real_height);
	if (grayscale==0)
     e30:	38000326 	beq	r7,zero,e40 <transfer_LCD_with_dma+0x6c>
		IOWR_16DIRECT(LCD_CTRL_BASE,LCD_CONTROL_REG,
				         LCD_Sixteen_Bit|LCD_Start_DMA|
				         LCD_RGB565_Mode|LCD_Color_Image);
	else
		IOWR_16DIRECT(LCD_CTRL_BASE,LCD_CONTROL_REG,
     e34:	00c04404 	movi	r3,272
     e38:	10c0002d 	sthio	r3,0(r2)
     e3c:	f800283a 	ret
	unsigned short real_width = (width > LCD_width) ? LCD_width : width;
	IOWR_32DIRECT(LCD_CTRL_BASE,LCD_Pict_width_reg,width);
	IOWR_32DIRECT(LCD_CTRL_BASE,LCD_IMAGE_POINTER_REG,(int)array);
	IOWR_32DIRECT(LCD_CTRL_BASE,LCD_IMAGE_SIZE_REG,real_width*real_height);
	if (grayscale==0)
		IOWR_16DIRECT(LCD_CTRL_BASE,LCD_CONTROL_REG,
     e40:	00c04004 	movi	r3,256
     e44:	10c0002d 	sthio	r3,0(r2)
     e48:	f800283a 	ret

00000e4c <main>:
//
//const char * pgx_array = &gx_array;
//const char * pgy_array = &gy_array;

int main()
{
     e4c:	defff504 	addi	sp,sp,-44
     e50:	dfc00a15 	stw	ra,40(sp)
     e54:	dd800715 	stw	r22,28(sp)
     e58:	dd400615 	stw	r21,24(sp)
     e5c:	dd000515 	stw	r20,20(sp)
     e60:	dcc00415 	stw	r19,16(sp)
     e64:	dc800315 	stw	r18,12(sp)
     e68:	dc400215 	stw	r17,8(sp)
     e6c:	dc000115 	stw	r16,4(sp)
     e70:	df000915 	stw	fp,36(sp)
     e74:	ddc00815 	stw	r23,32(sp)
  alt_u32 start_sobel_th = 0;
  alt_u32 end_sobel_th = 0;
  alt_u32 start_grayscale = 0;
  alt_u32 end_grayscale = 0;

  init_LCD();
     e78:	00009340 	call	934 <init_LCD>
  init_camera();
     e7c:	00001d80 	call	1d8 <init_camera>
  vga_set_swap(VGA_QuarterScreen|VGA_Grayscale);
     e80:	01000604 	movi	r4,24
     e84:	0001c740 	call	1c74 <vga_set_swap>
  printf("Hello from Nios II!\n");
     e88:	01000074 	movhi	r4,1
     e8c:	21016804 	addi	r4,r4,1440
     e90:	00025e40 	call	25e4 <puts>
  cam_get_profiling();
     e94:	00005380 	call	538 <cam_get_profiling>
  buffer1 = (void *) malloc(cam_get_xsize()*cam_get_ysize());
     e98:	00004f00 	call	4f0 <cam_get_xsize>
     e9c:	1021883a 	mov	r16,r2
     ea0:	00005140 	call	514 <cam_get_ysize>
     ea4:	10bfffcc 	andi	r2,r2,65535
     ea8:	813fffcc 	andi	r4,r16,65535
     eac:	2089383a 	mul	r4,r4,r2
	  if (new_image_available() != 0) {
		  if (current_image_valid()!=0) {
			  current_mode = DIPSW_get_value();
			  mode = current_mode&(DIPSW_SW1_MASK|DIPSW_SW3_MASK|DIPSW_SW2_MASK);
			  image = (unsigned short*)current_image_pointer();
		      switch (mode) {
     eb0:	04c00044 	movi	r19,1
     eb4:	05000084 	movi	r20,2
  init_LCD();
  init_camera();
  vga_set_swap(VGA_QuarterScreen|VGA_Grayscale);
  printf("Hello from Nios II!\n");
  cam_get_profiling();
  buffer1 = (void *) malloc(cam_get_xsize()*cam_get_ysize());
     eb8:	0001c840 	call	1c84 <malloc>
     ebc:	102d883a 	mov	r22,r2
  buffer2 = (void *) malloc(cam_get_xsize()*cam_get_ysize());
     ec0:	00004f00 	call	4f0 <cam_get_xsize>
     ec4:	1021883a 	mov	r16,r2
     ec8:	00005140 	call	514 <cam_get_ysize>
     ecc:	10bfffcc 	andi	r2,r2,65535
     ed0:	813fffcc 	andi	r4,r16,65535
     ed4:	2089383a 	mul	r4,r4,r2
		  if (current_image_valid()!=0) {
			  current_mode = DIPSW_get_value();
			  mode = current_mode&(DIPSW_SW1_MASK|DIPSW_SW3_MASK|DIPSW_SW2_MASK);
			  image = (unsigned short*)current_image_pointer();
		      switch (mode) {
		      case 0 : transfer_LCD_with_dma(&image[16520],
     ed8:	05604414 	movui	r21,33040
  init_camera();
  vga_set_swap(VGA_QuarterScreen|VGA_Grayscale);
  printf("Hello from Nios II!\n");
  cam_get_profiling();
  buffer1 = (void *) malloc(cam_get_xsize()*cam_get_ysize());
  buffer2 = (void *) malloc(cam_get_xsize()*cam_get_ysize());
     edc:	0001c840 	call	1c84 <malloc>
     ee0:	1025883a 	mov	r18,r2
  buffer3 = (void *) malloc(cam_get_xsize()*cam_get_ysize());
     ee4:	00004f00 	call	4f0 <cam_get_xsize>
     ee8:	1021883a 	mov	r16,r2
     eec:	00005140 	call	514 <cam_get_ysize>
     ef0:	10bfffcc 	andi	r2,r2,65535
     ef4:	813fffcc 	andi	r4,r16,65535
     ef8:	2089383a 	mul	r4,r4,r2
     efc:	0001c840 	call	1c84 <malloc>
     f00:	1023883a 	mov	r17,r2
  buffer4 = (void *) malloc(cam_get_xsize()*cam_get_ysize());
     f04:	00004f00 	call	4f0 <cam_get_xsize>
     f08:	1021883a 	mov	r16,r2
     f0c:	00005140 	call	514 <cam_get_ysize>
     f10:	10bfffcc 	andi	r2,r2,65535
     f14:	813fffcc 	andi	r4,r16,65535
     f18:	2089383a 	mul	r4,r4,r2
     f1c:	0001c840 	call	1c84 <malloc>
  cam_set_image_pointer(0,buffer1);
     f20:	b00b883a 	mov	r5,r22
     f24:	0009883a 	mov	r4,zero
  printf("Hello from Nios II!\n");
  cam_get_profiling();
  buffer1 = (void *) malloc(cam_get_xsize()*cam_get_ysize());
  buffer2 = (void *) malloc(cam_get_xsize()*cam_get_ysize());
  buffer3 = (void *) malloc(cam_get_xsize()*cam_get_ysize());
  buffer4 = (void *) malloc(cam_get_xsize()*cam_get_ysize());
     f28:	1021883a 	mov	r16,r2
  cam_set_image_pointer(0,buffer1);
     f2c:	00005b00 	call	5b0 <cam_set_image_pointer>
  cam_set_image_pointer(1,buffer2);
     f30:	900b883a 	mov	r5,r18
     f34:	9809883a 	mov	r4,r19
     f38:	00005b00 	call	5b0 <cam_set_image_pointer>
  cam_set_image_pointer(2,buffer3);
     f3c:	880b883a 	mov	r5,r17
     f40:	a009883a 	mov	r4,r20
     f44:	00005b00 	call	5b0 <cam_set_image_pointer>
  cam_set_image_pointer(3,buffer4);
     f48:	800b883a 	mov	r5,r16
     f4c:	010000c4 	movi	r4,3
     f50:	00005b00 	call	5b0 <cam_set_image_pointer>
  enable_continues_mode();
     f54:	00006680 	call	668 <enable_continues_mode>
  init_sobel_arrays(cam_get_xsize()>>1,cam_get_ysize());
     f58:	00004f00 	call	4f0 <cam_get_xsize>
     f5c:	1021883a 	mov	r16,r2
     f60:	00005140 	call	514 <cam_get_ysize>
     f64:	813fffcc 	andi	r4,r16,65535
     f68:	24c8d83a 	srl	r4,r4,r19
     f6c:	117fffcc 	andi	r5,r2,65535
     f70:	00012cc0 	call	12cc <init_sobel_arrays>
  do {
	  if (new_image_available() != 0) {
     f74:	000067c0 	call	67c <new_image_available>
     f78:	10803fcc 	andi	r2,r2,255
     f7c:	1080201c 	xori	r2,r2,128
     f80:	10bfe004 	addi	r2,r2,-128
     f84:	103ffb26 	beq	r2,zero,f74 <__alt_data_end+0xff000f74>
		  if (current_image_valid()!=0) {
     f88:	00006240 	call	624 <current_image_valid>
     f8c:	10bfffcc 	andi	r2,r2,65535
     f90:	10a0001c 	xori	r2,r2,32768
     f94:	10a00004 	addi	r2,r2,-32768
     f98:	103ff626 	beq	r2,zero,f74 <__alt_data_end+0xff000f74>
			  current_mode = DIPSW_get_value();
     f9c:	00006a80 	call	6a8 <DIPSW_get_value>
     fa0:	1021883a 	mov	r16,r2
			  mode = current_mode&(DIPSW_SW1_MASK|DIPSW_SW3_MASK|DIPSW_SW2_MASK);
			  image = (unsigned short*)current_image_pointer();
     fa4:	00006380 	call	638 <current_image_pointer>
     fa8:	1025883a 	mov	r18,r2
		      switch (mode) {
     fac:	808001cc 	andi	r2,r16,7
     fb0:	14c03b26 	beq	r2,r19,10a0 <main+0x254>
     fb4:	1000aa26 	beq	r2,zero,1260 <main+0x414>
     fb8:	15008526 	beq	r2,r20,11d0 <main+0x384>
     fbc:	00c000c4 	movi	r3,3
     fc0:	10c0561e 	bne	r2,r3,111c <main+0x2d0>
		      	  	   if ((current_mode&DIPSW_SW8_MASK)!=0) {
		      	  		  vga_set_swap(VGA_QuarterScreen);
		      	  		  vga_set_pointer(image);
		      	  	   }
		      	  	   break;
		      case 3 : alt_timestamp_start();
     fc4:	000f2740 	call	f274 <alt_timestamp_start>
		    	  	   start_grayscale = alt_timestamp();
     fc8:	000f2b00 	call	f2b0 <alt_timestamp>
     fcc:	102d883a 	mov	r22,r2
		    	  	   conv_grayscale((void *)image,
		    		                  cam_get_xsize()>>1,
     fd0:	00004f00 	call	4f0 <cam_get_xsize>
     fd4:	1023883a 	mov	r17,r2
		    		                  cam_get_ysize());
     fd8:	00005140 	call	514 <cam_get_ysize>
		      	  		  vga_set_pointer(image);
		      	  	   }
		      	  	   break;
		      case 3 : alt_timestamp_start();
		    	  	   start_grayscale = alt_timestamp();
		    	  	   conv_grayscale((void *)image,
     fdc:	897fffcc 	andi	r5,r17,65535
     fe0:	280ad07a 	srli	r5,r5,1
     fe4:	11bfffcc 	andi	r6,r2,65535
     fe8:	9009883a 	mov	r4,r18
     fec:	00006bc0 	call	6bc <conv_grayscale>
		    		                  cam_get_xsize()>>1,
		    		                  cam_get_ysize());
		    	  	   end_grayscale = alt_timestamp();
     ff0:	000f2b00 	call	f2b0 <alt_timestamp>
     ff4:	1023883a 	mov	r17,r2
		               grayscale = get_grayscale_picture();
     ff8:	00007600 	call	760 <get_grayscale_picture>
     ffc:	1039883a 	mov	fp,r2
		               alt_timestamp_start();
    1000:	000f2740 	call	f274 <alt_timestamp_start>
		               start_sobel_x = alt_timestamp();
    1004:	000f2b00 	call	f2b0 <alt_timestamp>
		               sobel_x(grayscale);
    1008:	e009883a 	mov	r4,fp
		    		                  cam_get_xsize()>>1,
		    		                  cam_get_ysize());
		    	  	   end_grayscale = alt_timestamp();
		               grayscale = get_grayscale_picture();
		               alt_timestamp_start();
		               start_sobel_x = alt_timestamp();
    100c:	102f883a 	mov	r23,r2
		               sobel_x(grayscale);
    1010:	000146c0 	call	146c <sobel_x>
		               end_sobel_x = alt_timestamp();
    1014:	000f2b00 	call	f2b0 <alt_timestamp>
		               sobel_y_with_rgb(grayscale);
    1018:	e009883a 	mov	r4,fp
		    	  	   end_grayscale = alt_timestamp();
		               grayscale = get_grayscale_picture();
		               alt_timestamp_start();
		               start_sobel_x = alt_timestamp();
		               sobel_x(grayscale);
		               end_sobel_x = alt_timestamp();
    101c:	1025883a 	mov	r18,r2
		               sobel_y_with_rgb(grayscale);
    1020:	00018400 	call	1840 <sobel_y_with_rgb>
		               image = GetSobel_rgb();
    1024:	0001c540 	call	1c54 <GetSobel_rgb>
    1028:	1039883a 	mov	fp,r2
		               transfer_LCD_with_dma(&image[16520],
		      		                	cam_get_xsize()>>1,
    102c:	00004f00 	call	4f0 <cam_get_xsize>
    1030:	1007883a 	mov	r3,r2
		      		                	cam_get_ysize(),0);
    1034:	d8c00015 	stw	r3,0(sp)
    1038:	00005140 	call	514 <cam_get_ysize>
		               start_sobel_x = alt_timestamp();
		               sobel_x(grayscale);
		               end_sobel_x = alt_timestamp();
		               sobel_y_with_rgb(grayscale);
		               image = GetSobel_rgb();
		               transfer_LCD_with_dma(&image[16520],
    103c:	d8c00017 	ldw	r3,0(sp)
		      		                	cam_get_xsize()>>1,
		      		                	cam_get_ysize(),0);
		      	  	   if ((current_mode&DIPSW_SW8_MASK)!=0) {
    1040:	84003fcc 	andi	r16,r16,255
    1044:	8400201c 	xori	r16,r16,128
		               start_sobel_x = alt_timestamp();
		               sobel_x(grayscale);
		               end_sobel_x = alt_timestamp();
		               sobel_y_with_rgb(grayscale);
		               image = GetSobel_rgb();
		               transfer_LCD_with_dma(&image[16520],
    1048:	197fffcc 	andi	r5,r3,65535
    104c:	280ad07a 	srli	r5,r5,1
    1050:	000f883a 	mov	r7,zero
    1054:	11bfffcc 	andi	r6,r2,65535
    1058:	e549883a 	add	r4,fp,r21
		      		                	cam_get_xsize()>>1,
		      		                	cam_get_ysize(),0);
		      	  	   if ((current_mode&DIPSW_SW8_MASK)!=0) {
    105c:	843fe004 	addi	r16,r16,-128
		               start_sobel_x = alt_timestamp();
		               sobel_x(grayscale);
		               end_sobel_x = alt_timestamp();
		               sobel_y_with_rgb(grayscale);
		               image = GetSobel_rgb();
		               transfer_LCD_with_dma(&image[16520],
    1060:	0000dd40 	call	dd4 <transfer_LCD_with_dma>
		      		                	cam_get_xsize()>>1,
		      		                	cam_get_ysize(),0);
		      	  	   if ((current_mode&DIPSW_SW8_MASK)!=0) {
    1064:	80008e16 	blt	r16,zero,12a0 <main+0x454>
    1068:	95e5c83a 	sub	r18,r18,r23
    106c:	8da3c83a 	sub	r17,r17,r22
		      	  		  vga_set_pointer(grayscale);
		      	  	   }
		      	  	   break;
		      }
		      //print differences
		      printf("-- CYCLE TIME OF FUNCTIONS --\n");
    1070:	01000074 	movhi	r4,1
    1074:	21016d04 	addi	r4,r4,1460
    1078:	00025e40 	call	25e4 <puts>
		      printf("[sobel_tot] : dC = %d\n",end_sobel_x-start_sobel_x);
    107c:	01000074 	movhi	r4,1
    1080:	900b883a 	mov	r5,r18
    1084:	21017504 	addi	r4,r4,1492
    1088:	00024e80 	call	24e8 <printf>
//		      printf("[sobel_x]   : dC = %d\n",end_sobel_x-start_sobel_x);
//		      printf("[sobel_y]   : dC = %d\n",end_sobel_y-start_sobel_y);
//		      printf("[sobel_th]  : dC = %d\n",end_sobel_th-start_sobel_th);
		      printf("[grayscale] : dC = %d\n",end_grayscale-start_grayscale);
    108c:	01000074 	movhi	r4,1
    1090:	880b883a 	mov	r5,r17
    1094:	21017b04 	addi	r4,r4,1516
    1098:	00024e80 	call	24e8 <printf>
    109c:	003fb506 	br	f74 <__alt_data_end+0xff000f74>
		      	  	   if ((current_mode&DIPSW_SW8_MASK)!=0) {
		      	  		  vga_set_swap(VGA_QuarterScreen);
		      	  		  vga_set_pointer(image);
		      	  	   }
		      	  	   break;
		      case 1 : alt_timestamp_start();
    10a0:	000f2740 	call	f274 <alt_timestamp_start>
		    	  	   start_grayscale = alt_timestamp();
    10a4:	000f2b00 	call	f2b0 <alt_timestamp>
    10a8:	102d883a 	mov	r22,r2
		    	  	   conv_grayscale((void *)image,
		    		                  cam_get_xsize()>>1,
    10ac:	00004f00 	call	4f0 <cam_get_xsize>
    10b0:	1023883a 	mov	r17,r2
		    		                  cam_get_ysize());
    10b4:	00005140 	call	514 <cam_get_ysize>
		      	  		  vga_set_pointer(image);
		      	  	   }
		      	  	   break;
		      case 1 : alt_timestamp_start();
		    	  	   start_grayscale = alt_timestamp();
		    	  	   conv_grayscale((void *)image,
    10b8:	897fffcc 	andi	r5,r17,65535
    10bc:	280ad07a 	srli	r5,r5,1
    10c0:	9009883a 	mov	r4,r18
    10c4:	11bfffcc 	andi	r6,r2,65535
    10c8:	00006bc0 	call	6bc <conv_grayscale>
		    		                  cam_get_xsize()>>1,
		    		                  cam_get_ysize());
		    	  	   end_grayscale = alt_timestamp();
    10cc:	000f2b00 	call	f2b0 <alt_timestamp>
    10d0:	1023883a 	mov	r17,r2
		               grayscale = get_grayscale_picture();
    10d4:	00007600 	call	760 <get_grayscale_picture>
    10d8:	102f883a 	mov	r23,r2
		               transfer_LCD_with_dma(&grayscale[16520],
		      		                	cam_get_xsize()>>1,
    10dc:	00004f00 	call	4f0 <cam_get_xsize>
    10e0:	1025883a 	mov	r18,r2
		      		                	cam_get_ysize(),1);
    10e4:	00005140 	call	514 <cam_get_ysize>
		    	  	   conv_grayscale((void *)image,
		    		                  cam_get_xsize()>>1,
		    		                  cam_get_ysize());
		    	  	   end_grayscale = alt_timestamp();
		               grayscale = get_grayscale_picture();
		               transfer_LCD_with_dma(&grayscale[16520],
    10e8:	917fffcc 	andi	r5,r18,65535
    10ec:	280ad07a 	srli	r5,r5,1
		      		                	cam_get_xsize()>>1,
		      		                	cam_get_ysize(),1);
		      	  	   if ((current_mode&DIPSW_SW8_MASK)!=0) {
    10f0:	84003fcc 	andi	r16,r16,255
    10f4:	8400201c 	xori	r16,r16,128
		    	  	   conv_grayscale((void *)image,
		    		                  cam_get_xsize()>>1,
		    		                  cam_get_ysize());
		    	  	   end_grayscale = alt_timestamp();
		               grayscale = get_grayscale_picture();
		               transfer_LCD_with_dma(&grayscale[16520],
    10f8:	980f883a 	mov	r7,r19
    10fc:	11bfffcc 	andi	r6,r2,65535
    1100:	b9102204 	addi	r4,r23,16520
		      		                	cam_get_xsize()>>1,
		      		                	cam_get_ysize(),1);
		      	  	   if ((current_mode&DIPSW_SW8_MASK)!=0) {
    1104:	843fe004 	addi	r16,r16,-128
		    	  	   conv_grayscale((void *)image,
		    		                  cam_get_xsize()>>1,
		    		                  cam_get_ysize());
		    	  	   end_grayscale = alt_timestamp();
		               grayscale = get_grayscale_picture();
		               transfer_LCD_with_dma(&grayscale[16520],
    1108:	0000dd40 	call	dd4 <transfer_LCD_with_dma>
		      		                	cam_get_xsize()>>1,
		      		                	cam_get_ysize(),1);
		      	  	   if ((current_mode&DIPSW_SW8_MASK)!=0) {
    110c:	80006616 	blt	r16,zero,12a8 <main+0x45c>
    1110:	8da3c83a 	sub	r17,r17,r22
		               transfer_LCD_with_dma(&image[16520],
		      		                	cam_get_xsize()>>1,
		      		                	cam_get_ysize(),0);
		      	  	   if ((current_mode&DIPSW_SW8_MASK)!=0) {
		      	  		  vga_set_swap(VGA_QuarterScreen);
		      	  		  vga_set_pointer(image);
    1114:	0025883a 	mov	r18,zero
    1118:	003fd506 	br	1070 <__alt_data_end+0xff001070>
		      	  	   if ((current_mode&DIPSW_SW8_MASK)!=0) {
		      	  		  vga_set_swap(VGA_QuarterScreen);
		      	  		  vga_set_pointer(image);
		      	  	   }
		      	  	   break;
		      default: alt_timestamp_start();
    111c:	000f2740 	call	f274 <alt_timestamp_start>
		    	  	   start_grayscale = alt_timestamp();
    1120:	000f2b00 	call	f2b0 <alt_timestamp>
    1124:	102d883a 	mov	r22,r2
		    	  	   conv_grayscale((void *)image,
	                                  cam_get_xsize()>>1,
    1128:	00004f00 	call	4f0 <cam_get_xsize>
    112c:	1023883a 	mov	r17,r2
	                                  cam_get_ysize());
    1130:	00005140 	call	514 <cam_get_ysize>
		      	  		  vga_set_pointer(image);
		      	  	   }
		      	  	   break;
		      default: alt_timestamp_start();
		    	  	   start_grayscale = alt_timestamp();
		    	  	   conv_grayscale((void *)image,
    1134:	897fffcc 	andi	r5,r17,65535
    1138:	280ad07a 	srli	r5,r5,1
    113c:	11bfffcc 	andi	r6,r2,65535
    1140:	9009883a 	mov	r4,r18
    1144:	00006bc0 	call	6bc <conv_grayscale>
	                                  cam_get_xsize()>>1,
	                                  cam_get_ysize());
		    	  	   end_grayscale = alt_timestamp();
    1148:	000f2b00 	call	f2b0 <alt_timestamp>
    114c:	1023883a 	mov	r17,r2
                       grayscale = get_grayscale_picture();
    1150:	00007600 	call	760 <get_grayscale_picture>
    1154:	1025883a 	mov	r18,r2

                       alt_timestamp_start();
    1158:	000f2740 	call	f274 <alt_timestamp_start>
                       start_sobel_x = alt_timestamp();
    115c:	000f2b00 	call	f2b0 <alt_timestamp>
//                       sobel_x(grayscale);
                       sobel_complete(grayscale, 128);
    1160:	9009883a 	mov	r4,r18
    1164:	01402004 	movi	r5,128
	                                  cam_get_ysize());
		    	  	   end_grayscale = alt_timestamp();
                       grayscale = get_grayscale_picture();

                       alt_timestamp_start();
                       start_sobel_x = alt_timestamp();
    1168:	102f883a 	mov	r23,r2
//                       sobel_x(grayscale);
                       sobel_complete(grayscale, 128);
    116c:	0001a440 	call	1a44 <sobel_complete>
                       end_sobel_x = alt_timestamp();
    1170:	000f2b00 	call	f2b0 <alt_timestamp>
    1174:	1025883a 	mov	r18,r2
//                       alt_timestamp_start();
//                       start_sobel_th = alt_timestamp();
//                       sobel_threshold(128);
//                       end_sobel_th = alt_timestamp();

                       grayscale=GetSobelResult();
    1178:	0001c5c0 	call	1c5c <GetSobelResult>
    117c:	1039883a 	mov	fp,r2
		               transfer_LCD_with_dma(&grayscale[16520],
		      		                	cam_get_xsize()>>1,
    1180:	00004f00 	call	4f0 <cam_get_xsize>
    1184:	1007883a 	mov	r3,r2
		      		                	cam_get_ysize(),1);
    1188:	d8c00015 	stw	r3,0(sp)
    118c:	00005140 	call	514 <cam_get_ysize>
//                       start_sobel_th = alt_timestamp();
//                       sobel_threshold(128);
//                       end_sobel_th = alt_timestamp();

                       grayscale=GetSobelResult();
		               transfer_LCD_with_dma(&grayscale[16520],
    1190:	d8c00017 	ldw	r3,0(sp)
		      		                	cam_get_xsize()>>1,
		      		                	cam_get_ysize(),1);
		      	  	   if ((current_mode&DIPSW_SW8_MASK)!=0) {
    1194:	84003fcc 	andi	r16,r16,255
    1198:	8400201c 	xori	r16,r16,128
//                       start_sobel_th = alt_timestamp();
//                       sobel_threshold(128);
//                       end_sobel_th = alt_timestamp();

                       grayscale=GetSobelResult();
		               transfer_LCD_with_dma(&grayscale[16520],
    119c:	197fffcc 	andi	r5,r3,65535
    11a0:	280ad07a 	srli	r5,r5,1
    11a4:	01c00044 	movi	r7,1
    11a8:	11bfffcc 	andi	r6,r2,65535
    11ac:	e1102204 	addi	r4,fp,16520
		      		                	cam_get_xsize()>>1,
		      		                	cam_get_ysize(),1);
		      	  	   if ((current_mode&DIPSW_SW8_MASK)!=0) {
    11b0:	843fe004 	addi	r16,r16,-128
//                       start_sobel_th = alt_timestamp();
//                       sobel_threshold(128);
//                       end_sobel_th = alt_timestamp();

                       grayscale=GetSobelResult();
		               transfer_LCD_with_dma(&grayscale[16520],
    11b4:	0000dd40 	call	dd4 <transfer_LCD_with_dma>
		      		                	cam_get_xsize()>>1,
		      		                	cam_get_ysize(),1);
		      	  	   if ((current_mode&DIPSW_SW8_MASK)!=0) {
    11b8:	803fab0e 	bge	r16,zero,1068 <__alt_data_end+0xff001068>
		      	  		  vga_set_swap(VGA_QuarterScreen|VGA_Grayscale);
    11bc:	01000604 	movi	r4,24
    11c0:	0001c740 	call	1c74 <vga_set_swap>
		      	  		  vga_set_pointer(grayscale);
    11c4:	e009883a 	mov	r4,fp
    11c8:	0001c640 	call	1c64 <vga_set_pointer>
    11cc:	003fa606 	br	1068 <__alt_data_end+0xff001068>
		      	  	   if ((current_mode&DIPSW_SW8_MASK)!=0) {
		      	  		  vga_set_swap(VGA_QuarterScreen|VGA_Grayscale);
		      	  		  vga_set_pointer(grayscale);
		      	  	   }
		      	  	   break;
		      case 2 : alt_timestamp_start();
    11d0:	000f2740 	call	f274 <alt_timestamp_start>
		    	  	   start_grayscale = alt_timestamp();
    11d4:	000f2b00 	call	f2b0 <alt_timestamp>
    11d8:	102d883a 	mov	r22,r2
		    	  	   conv_grayscale((void *)image,
		    		                  cam_get_xsize()>>1,
    11dc:	00004f00 	call	4f0 <cam_get_xsize>
    11e0:	1023883a 	mov	r17,r2
		    		                  cam_get_ysize());
    11e4:	00005140 	call	514 <cam_get_ysize>
		      	  		  vga_set_pointer(grayscale);
		      	  	   }
		      	  	   break;
		      case 2 : alt_timestamp_start();
		    	  	   start_grayscale = alt_timestamp();
		    	  	   conv_grayscale((void *)image,
    11e8:	897fffcc 	andi	r5,r17,65535
    11ec:	280ad07a 	srli	r5,r5,1
    11f0:	11bfffcc 	andi	r6,r2,65535
    11f4:	9009883a 	mov	r4,r18
    11f8:	00006bc0 	call	6bc <conv_grayscale>
		    		                  cam_get_xsize()>>1,
		    		                  cam_get_ysize());
		    	  	   end_grayscale = alt_timestamp();
    11fc:	000f2b00 	call	f2b0 <alt_timestamp>
    1200:	1023883a 	mov	r17,r2
		               grayscale = get_grayscale_picture();
    1204:	00007600 	call	760 <get_grayscale_picture>
		               sobel_x_with_rgb(grayscale);
    1208:	1009883a 	mov	r4,r2
    120c:	00015ac0 	call	15ac <sobel_x_with_rgb>
		               image = GetSobel_rgb();
    1210:	0001c540 	call	1c54 <GetSobel_rgb>
    1214:	102f883a 	mov	r23,r2
		               transfer_LCD_with_dma(&image[16520],
		      		                	cam_get_xsize()>>1,
    1218:	00004f00 	call	4f0 <cam_get_xsize>
    121c:	1025883a 	mov	r18,r2
		      		                	cam_get_ysize(),0);
    1220:	00005140 	call	514 <cam_get_ysize>
		    		                  cam_get_ysize());
		    	  	   end_grayscale = alt_timestamp();
		               grayscale = get_grayscale_picture();
		               sobel_x_with_rgb(grayscale);
		               image = GetSobel_rgb();
		               transfer_LCD_with_dma(&image[16520],
    1224:	917fffcc 	andi	r5,r18,65535
    1228:	280ad07a 	srli	r5,r5,1
		      		                	cam_get_xsize()>>1,
		      		                	cam_get_ysize(),0);
		      	  	   if ((current_mode&DIPSW_SW8_MASK)!=0) {
    122c:	84003fcc 	andi	r16,r16,255
    1230:	8400201c 	xori	r16,r16,128
		    		                  cam_get_ysize());
		    	  	   end_grayscale = alt_timestamp();
		               grayscale = get_grayscale_picture();
		               sobel_x_with_rgb(grayscale);
		               image = GetSobel_rgb();
		               transfer_LCD_with_dma(&image[16520],
    1234:	000f883a 	mov	r7,zero
    1238:	11bfffcc 	andi	r6,r2,65535
    123c:	bd49883a 	add	r4,r23,r21
		      		                	cam_get_xsize()>>1,
		      		                	cam_get_ysize(),0);
		      	  	   if ((current_mode&DIPSW_SW8_MASK)!=0) {
    1240:	843fe004 	addi	r16,r16,-128
		    		                  cam_get_ysize());
		    	  	   end_grayscale = alt_timestamp();
		               grayscale = get_grayscale_picture();
		               sobel_x_with_rgb(grayscale);
		               image = GetSobel_rgb();
		               transfer_LCD_with_dma(&image[16520],
    1244:	0000dd40 	call	dd4 <transfer_LCD_with_dma>
		      		                	cam_get_xsize()>>1,
		      		                	cam_get_ysize(),0);
		      	  	   if ((current_mode&DIPSW_SW8_MASK)!=0) {
    1248:	803fb10e 	bge	r16,zero,1110 <__alt_data_end+0xff001110>
		      	  		  vga_set_swap(VGA_QuarterScreen);
    124c:	01000204 	movi	r4,8
    1250:	0001c740 	call	1c74 <vga_set_swap>
		      	  		  vga_set_pointer(image);
    1254:	b809883a 	mov	r4,r23
    1258:	0001c640 	call	1c64 <vga_set_pointer>
    125c:	003fac06 	br	1110 <__alt_data_end+0xff001110>
			  current_mode = DIPSW_get_value();
			  mode = current_mode&(DIPSW_SW1_MASK|DIPSW_SW3_MASK|DIPSW_SW2_MASK);
			  image = (unsigned short*)current_image_pointer();
		      switch (mode) {
		      case 0 : transfer_LCD_with_dma(&image[16520],
		                	cam_get_xsize()>>1,
    1260:	00004f00 	call	4f0 <cam_get_xsize>
    1264:	1023883a 	mov	r17,r2
		                	cam_get_ysize(),0);
    1268:	00005140 	call	514 <cam_get_ysize>
		  if (current_image_valid()!=0) {
			  current_mode = DIPSW_get_value();
			  mode = current_mode&(DIPSW_SW1_MASK|DIPSW_SW3_MASK|DIPSW_SW2_MASK);
			  image = (unsigned short*)current_image_pointer();
		      switch (mode) {
		      case 0 : transfer_LCD_with_dma(&image[16520],
    126c:	897fffcc 	andi	r5,r17,65535
    1270:	280ad07a 	srli	r5,r5,1
		                	cam_get_xsize()>>1,
		                	cam_get_ysize(),0);
		      	  	   if ((current_mode&DIPSW_SW8_MASK)!=0) {
    1274:	84003fcc 	andi	r16,r16,255
    1278:	8400201c 	xori	r16,r16,128
		  if (current_image_valid()!=0) {
			  current_mode = DIPSW_get_value();
			  mode = current_mode&(DIPSW_SW1_MASK|DIPSW_SW3_MASK|DIPSW_SW2_MASK);
			  image = (unsigned short*)current_image_pointer();
		      switch (mode) {
		      case 0 : transfer_LCD_with_dma(&image[16520],
    127c:	000f883a 	mov	r7,zero
    1280:	11bfffcc 	andi	r6,r2,65535
    1284:	9549883a 	add	r4,r18,r21
		                	cam_get_xsize()>>1,
		                	cam_get_ysize(),0);
		      	  	   if ((current_mode&DIPSW_SW8_MASK)!=0) {
    1288:	843fe004 	addi	r16,r16,-128
		  if (current_image_valid()!=0) {
			  current_mode = DIPSW_get_value();
			  mode = current_mode&(DIPSW_SW1_MASK|DIPSW_SW3_MASK|DIPSW_SW2_MASK);
			  image = (unsigned short*)current_image_pointer();
		      switch (mode) {
		      case 0 : transfer_LCD_with_dma(&image[16520],
    128c:	0000dd40 	call	dd4 <transfer_LCD_with_dma>
		                	cam_get_xsize()>>1,
		                	cam_get_ysize(),0);
		      	  	   if ((current_mode&DIPSW_SW8_MASK)!=0) {
    1290:	80000716 	blt	r16,zero,12b0 <main+0x464>
    1294:	0023883a 	mov	r17,zero
    1298:	0025883a 	mov	r18,zero
    129c:	003f7406 	br	1070 <__alt_data_end+0xff001070>
		               image = GetSobel_rgb();
		               transfer_LCD_with_dma(&image[16520],
		      		                	cam_get_xsize()>>1,
		      		                	cam_get_ysize(),0);
		      	  	   if ((current_mode&DIPSW_SW8_MASK)!=0) {
		      	  		  vga_set_swap(VGA_QuarterScreen);
    12a0:	01000204 	movi	r4,8
    12a4:	003fc606 	br	11c0 <__alt_data_end+0xff0011c0>
		               grayscale = get_grayscale_picture();
		               transfer_LCD_with_dma(&grayscale[16520],
		      		                	cam_get_xsize()>>1,
		      		                	cam_get_ysize(),1);
		      	  	   if ((current_mode&DIPSW_SW8_MASK)!=0) {
		      	  		  vga_set_swap(VGA_QuarterScreen|VGA_Grayscale);
    12a8:	01000604 	movi	r4,24
    12ac:	003fe806 	br	1250 <__alt_data_end+0xff001250>
		      switch (mode) {
		      case 0 : transfer_LCD_with_dma(&image[16520],
		                	cam_get_xsize()>>1,
		                	cam_get_ysize(),0);
		      	  	   if ((current_mode&DIPSW_SW8_MASK)!=0) {
		      	  		  vga_set_swap(VGA_QuarterScreen);
    12b0:	01000204 	movi	r4,8
    12b4:	0001c740 	call	1c74 <vga_set_swap>
		      	  		  vga_set_pointer(image);
    12b8:	9009883a 	mov	r4,r18
    12bc:	0001c640 	call	1c64 <vga_set_pointer>
    12c0:	0023883a 	mov	r17,zero
    12c4:	0025883a 	mov	r18,zero
    12c8:	003f6906 	br	1070 <__alt_data_end+0xff001070>

000012cc <init_sobel_arrays>:

void init_sobel_arrays(int width , int height) {
	int loop;
	sobel_width = width;
	sobel_height = height;
	if (sobel_x_result != NULL)
    12cc:	d0a6d617 	ldw	r2,-25768(gp)
                   {-1,-2,-1}};

const char * pgx_array = &(gx_array);
const char * pgy_array = &(gy_array);

void init_sobel_arrays(int width , int height) {
    12d0:	defffd04 	addi	sp,sp,-12
    12d4:	dc400115 	stw	r17,4(sp)
    12d8:	dc000015 	stw	r16,0(sp)
    12dc:	dfc00215 	stw	ra,8(sp)
	int loop;
	sobel_width = width;
    12e0:	d126d315 	stw	r4,-25780(gp)
	sobel_height = height;
    12e4:	d166d515 	stw	r5,-25772(gp)
                   {-1,-2,-1}};

const char * pgx_array = &(gx_array);
const char * pgy_array = &(gy_array);

void init_sobel_arrays(int width , int height) {
    12e8:	2023883a 	mov	r17,r4
    12ec:	2821883a 	mov	r16,r5
	int loop;
	sobel_width = width;
	sobel_height = height;
	if (sobel_x_result != NULL)
    12f0:	10000226 	beq	r2,zero,12fc <init_sobel_arrays+0x30>
		free(sobel_x_result);
    12f4:	1009883a 	mov	r4,r2
    12f8:	0001c980 	call	1c98 <free>
	sobel_x_result = (short *)malloc(width*height*sizeof(short));
    12fc:	8c21383a 	mul	r16,r17,r16
    1300:	8423883a 	add	r17,r16,r16
    1304:	8809883a 	mov	r4,r17
    1308:	0001c840 	call	1c84 <malloc>
	if (sobel_y_result != NULL)
    130c:	d126d717 	ldw	r4,-25764(gp)
	int loop;
	sobel_width = width;
	sobel_height = height;
	if (sobel_x_result != NULL)
		free(sobel_x_result);
	sobel_x_result = (short *)malloc(width*height*sizeof(short));
    1310:	d0a6d615 	stw	r2,-25768(gp)
	if (sobel_y_result != NULL)
    1314:	20000126 	beq	r4,zero,131c <init_sobel_arrays+0x50>
		free(sobel_y_result);
    1318:	0001c980 	call	1c98 <free>
	sobel_y_result = (short *)malloc(width*height*sizeof(short));
    131c:	8809883a 	mov	r4,r17
    1320:	0001c840 	call	1c84 <malloc>
	if (sobel_result != NULL)
    1324:	d126d417 	ldw	r4,-25776(gp)
	if (sobel_x_result != NULL)
		free(sobel_x_result);
	sobel_x_result = (short *)malloc(width*height*sizeof(short));
	if (sobel_y_result != NULL)
		free(sobel_y_result);
	sobel_y_result = (short *)malloc(width*height*sizeof(short));
    1328:	d0a6d715 	stw	r2,-25764(gp)
	if (sobel_result != NULL)
    132c:	20000126 	beq	r4,zero,1334 <init_sobel_arrays+0x68>
		alt_uncached_free(sobel_result);
    1330:	000ea740 	call	ea74 <alt_uncached_free>
	sobel_result = (unsigned char *)alt_uncached_malloc(width*height*sizeof(unsigned char));
    1334:	8009883a 	mov	r4,r16
    1338:	000ea840 	call	ea84 <alt_uncached_malloc>
	if (sobel_rgb565 != NULL)
    133c:	d126d817 	ldw	r4,-25760(gp)
	if (sobel_y_result != NULL)
		free(sobel_y_result);
	sobel_y_result = (short *)malloc(width*height*sizeof(short));
	if (sobel_result != NULL)
		alt_uncached_free(sobel_result);
	sobel_result = (unsigned char *)alt_uncached_malloc(width*height*sizeof(unsigned char));
    1340:	d0a6d415 	stw	r2,-25776(gp)
	if (sobel_rgb565 != NULL)
    1344:	20000126 	beq	r4,zero,134c <init_sobel_arrays+0x80>
		free(sobel_rgb565);
    1348:	0001c980 	call	1c98 <free>
	sobel_rgb565 = (unsigned short *)malloc(width*height*sizeof(unsigned short));
    134c:	8809883a 	mov	r4,r17
    1350:	0001c840 	call	1c84 <malloc>
    1354:	d0a6d815 	stw	r2,-25760(gp)
	for (loop = 0 ; loop < width*height ; loop++) {
    1358:	0005883a 	mov	r2,zero
    135c:	04000f0e 	bge	zero,r16,139c <init_sobel_arrays+0xd0>
		sobel_x_result[loop] = 0;
    1360:	d226d617 	ldw	r8,-25768(gp)
		sobel_y_result[loop] = 0;
    1364:	d1e6d717 	ldw	r7,-25764(gp)
		sobel_result[loop] = 0;
    1368:	d1a6d417 	ldw	r6,-25776(gp)
    136c:	1087883a 	add	r3,r2,r2
	sobel_result = (unsigned char *)alt_uncached_malloc(width*height*sizeof(unsigned char));
	if (sobel_rgb565 != NULL)
		free(sobel_rgb565);
	sobel_rgb565 = (unsigned short *)malloc(width*height*sizeof(unsigned short));
	for (loop = 0 ; loop < width*height ; loop++) {
		sobel_x_result[loop] = 0;
    1370:	40d1883a 	add	r8,r8,r3
    1374:	4000000d 	sth	zero,0(r8)
		sobel_y_result[loop] = 0;
    1378:	38cf883a 	add	r7,r7,r3
		sobel_result[loop] = 0;
    137c:	308d883a 	add	r6,r6,r2
	if (sobel_rgb565 != NULL)
		free(sobel_rgb565);
	sobel_rgb565 = (unsigned short *)malloc(width*height*sizeof(unsigned short));
	for (loop = 0 ; loop < width*height ; loop++) {
		sobel_x_result[loop] = 0;
		sobel_y_result[loop] = 0;
    1380:	3800000d 	sth	zero,0(r7)
		sobel_result[loop] = 0;
    1384:	30000005 	stb	zero,0(r6)
		sobel_rgb565[loop] = 0;
    1388:	d1a6d817 	ldw	r6,-25760(gp)
		alt_uncached_free(sobel_result);
	sobel_result = (unsigned char *)alt_uncached_malloc(width*height*sizeof(unsigned char));
	if (sobel_rgb565 != NULL)
		free(sobel_rgb565);
	sobel_rgb565 = (unsigned short *)malloc(width*height*sizeof(unsigned short));
	for (loop = 0 ; loop < width*height ; loop++) {
    138c:	10800044 	addi	r2,r2,1
		sobel_x_result[loop] = 0;
		sobel_y_result[loop] = 0;
		sobel_result[loop] = 0;
		sobel_rgb565[loop] = 0;
    1390:	30c7883a 	add	r3,r6,r3
    1394:	1800000d 	sth	zero,0(r3)
		alt_uncached_free(sobel_result);
	sobel_result = (unsigned char *)alt_uncached_malloc(width*height*sizeof(unsigned char));
	if (sobel_rgb565 != NULL)
		free(sobel_rgb565);
	sobel_rgb565 = (unsigned short *)malloc(width*height*sizeof(unsigned short));
	for (loop = 0 ; loop < width*height ; loop++) {
    1398:	80bff11e 	bne	r16,r2,1360 <__alt_data_end+0xff001360>
		sobel_x_result[loop] = 0;
		sobel_y_result[loop] = 0;
		sobel_result[loop] = 0;
		sobel_rgb565[loop] = 0;
	}
}
    139c:	dfc00217 	ldw	ra,8(sp)
    13a0:	dc400117 	ldw	r17,4(sp)
    13a4:	dc000017 	ldw	r16,0(sp)
    13a8:	dec00304 	addi	sp,sp,12
    13ac:	f800283a 	ret

000013b0 <sobel_mac>:

short sobel_mac( unsigned char *pixels,
                 int x,
                 int y,
                 const char *filter,
                 unsigned int width ) {
    13b0:	da800017 	ldw	r10,0(sp)
				   pixels[(y+dy)*width+(x+dx)];
	  }
	}*/

	// modifs
	result += filter[0] * pixels[(y-1)*width+(x-1)];	// dy = -1, dx = -1
    13b4:	31bfffc4 	addi	r6,r6,-1
	result += filter[4] * pixels[y*width+x];			// dy = 0, dx = 0
	result += filter[5] * pixels[y*width+(x+1)];		// dy = 0, dx = 1
	result += filter[6] * pixels[(y+1)*width+(x-1)];	// dy = 1, dx = -1
	result += filter[7] * pixels[(y+1)*width+x];		// dy = 1, dx = 0
	result += filter[8] * pixels[(y+1)*width+(x+1)];	// dy = 1, dx = 1
	return result;
    13b8:	38c00047 	ldb	r3,1(r7)
				   pixels[(y+dy)*width+(x+dx)];
	  }
	}*/

	// modifs
	result += filter[0] * pixels[(y-1)*width+(x-1)];	// dy = -1, dx = -1
    13bc:	328d383a 	mul	r6,r6,r10
	result += filter[4] * pixels[y*width+x];			// dy = 0, dx = 0
	result += filter[5] * pixels[y*width+(x+1)];		// dy = 0, dx = 1
	result += filter[6] * pixels[(y+1)*width+(x-1)];	// dy = 1, dx = -1
	result += filter[7] * pixels[(y+1)*width+x];		// dy = 1, dx = 0
	result += filter[8] * pixels[(y+1)*width+(x+1)];	// dy = 1, dx = 1
	return result;
    13c0:	3b8000c7 	ldb	r14,3(r7)
    13c4:	3a000107 	ldb	r8,4(r7)

	// modifs
	result += filter[0] * pixels[(y-1)*width+(x-1)];	// dy = -1, dx = -1
	result += filter[1] * pixels[(y-1)*width+x];		// dy = -1, dx = 0
	result += filter[2] * pixels[(y-1)*width+(x+1)];	// dy = -1, dx = 1
	result += filter[3] * pixels[y*width+(x-1)];		// dy = 0, dx = -1
    13c8:	5185883a 	add	r2,r10,r6
    13cc:	2893883a 	add	r9,r5,r2
				   pixels[(y+dy)*width+(x+dx)];
	  }
	}*/

	// modifs
	result += filter[0] * pixels[(y-1)*width+(x-1)];	// dy = -1, dx = -1
    13d0:	314d883a 	add	r6,r6,r5
	result += filter[1] * pixels[(y-1)*width+x];		// dy = -1, dx = 0
    13d4:	218d883a 	add	r6,r4,r6
	result += filter[2] * pixels[(y-1)*width+(x+1)];	// dy = -1, dx = 1
	result += filter[3] * pixels[y*width+(x-1)];		// dy = 0, dx = -1
    13d8:	2253883a 	add	r9,r4,r9
	result += filter[4] * pixels[y*width+x];			// dy = 0, dx = 0
	result += filter[5] * pixels[y*width+(x+1)];		// dy = 0, dx = 1
	result += filter[6] * pixels[(y+1)*width+(x-1)];	// dy = 1, dx = -1
	result += filter[7] * pixels[(y+1)*width+x];		// dy = 1, dx = 0
	result += filter[8] * pixels[(y+1)*width+(x+1)];	// dy = 1, dx = 1
	return result;
    13dc:	33000003 	ldbu	r12,0(r6)
	result += filter[1] * pixels[(y-1)*width+x];		// dy = -1, dx = 0
	result += filter[2] * pixels[(y-1)*width+(x+1)];	// dy = -1, dx = 1
	result += filter[3] * pixels[y*width+(x-1)];		// dy = 0, dx = -1
	result += filter[4] * pixels[y*width+x];			// dy = 0, dx = 0
	result += filter[5] * pixels[y*width+(x+1)];		// dy = 0, dx = 1
	result += filter[6] * pixels[(y+1)*width+(x-1)];	// dy = 1, dx = -1
    13e0:	5095883a 	add	r10,r10,r2
	result += filter[7] * pixels[(y+1)*width+x];		// dy = 1, dx = 0
	result += filter[8] * pixels[(y+1)*width+(x+1)];	// dy = 1, dx = 1
	return result;
    13e4:	48bfffc3 	ldbu	r2,-1(r9)
	result += filter[1] * pixels[(y-1)*width+x];		// dy = -1, dx = 0
	result += filter[2] * pixels[(y-1)*width+(x+1)];	// dy = -1, dx = 1
	result += filter[3] * pixels[y*width+(x-1)];		// dy = 0, dx = -1
	result += filter[4] * pixels[y*width+x];			// dy = 0, dx = 0
	result += filter[5] * pixels[y*width+(x+1)];		// dy = 0, dx = 1
	result += filter[6] * pixels[(y+1)*width+(x-1)];	// dy = 1, dx = -1
    13e8:	5155883a 	add	r10,r10,r5
	result += filter[7] * pixels[(y+1)*width+x];		// dy = 1, dx = 0
	result += filter[8] * pixels[(y+1)*width+(x+1)];	// dy = 1, dx = 1
	return result;
    13ec:	4ac00003 	ldbu	r11,0(r9)
	result += filter[2] * pixels[(y-1)*width+(x+1)];	// dy = -1, dx = 1
	result += filter[3] * pixels[y*width+(x-1)];		// dy = 0, dx = -1
	result += filter[4] * pixels[y*width+x];			// dy = 0, dx = 0
	result += filter[5] * pixels[y*width+(x+1)];		// dy = 0, dx = 1
	result += filter[6] * pixels[(y+1)*width+(x-1)];	// dy = 1, dx = -1
	result += filter[7] * pixels[(y+1)*width+x];		// dy = 1, dx = 0
    13f0:	229b883a 	add	r13,r4,r10
	result += filter[8] * pixels[(y+1)*width+(x+1)];	// dy = 1, dx = 1
	return result;
    13f4:	49000043 	ldbu	r4,1(r9)
    13f8:	3a800147 	ldb	r10,5(r7)
    13fc:	139d383a 	mul	r14,r2,r14
    1400:	60d9383a 	mul	r12,r12,r3
    1404:	68800003 	ldbu	r2,0(r13)
    1408:	38c001c7 	ldb	r3,7(r7)
    140c:	5a17383a 	mul	r11,r11,r8
    1410:	33ffffc3 	ldbu	r15,-1(r6)
    1414:	3a000007 	ldb	r8,0(r7)
    1418:	2295383a 	mul	r10,r4,r10
    141c:	31000043 	ldbu	r4,1(r6)
    1420:	39800087 	ldb	r6,2(r7)
    1424:	730b883a 	add	r5,r14,r12
    1428:	10d3383a 	mul	r9,r2,r3
    142c:	6b3fffc3 	ldbu	r12,-1(r13)
    1430:	38c00187 	ldb	r3,6(r7)
    1434:	2acb883a 	add	r5,r5,r11
    1438:	7a11383a 	mul	r8,r15,r8
    143c:	6ac00043 	ldbu	r11,1(r13)
    1440:	39c00207 	ldb	r7,8(r7)
    1444:	2a8b883a 	add	r5,r5,r10
    1448:	2189383a 	mul	r4,r4,r6
    144c:	2a45883a 	add	r2,r5,r9
    1450:	60c7383a 	mul	r3,r12,r3
    1454:	1205883a 	add	r2,r2,r8
    1458:	59cb383a 	mul	r5,r11,r7
    145c:	1105883a 	add	r2,r2,r4
    1460:	10c5883a 	add	r2,r2,r3
}
    1464:	1145883a 	add	r2,r2,r5
    1468:	f800283a 	ret

0000146c <sobel_x>:

void sobel_x( unsigned char *source ) {
    146c:	defff604 	addi	sp,sp,-40
    1470:	dc400115 	stw	r17,4(sp)
   int x,y;
//   short result = 0;

   for (y = 1 ; y < (sobel_height-1) ; y++) {
    1474:	d466d517 	ldw	r17,-25772(gp)
	result += filter[7] * pixels[(y+1)*width+x];		// dy = 1, dx = 0
	result += filter[8] * pixels[(y+1)*width+(x+1)];	// dy = 1, dx = 1
	return result;
}

void sobel_x( unsigned char *source ) {
    1478:	dfc00915 	stw	ra,36(sp)
    147c:	df000815 	stw	fp,32(sp)
    1480:	ddc00715 	stw	r23,28(sp)
    1484:	dd800615 	stw	r22,24(sp)
    1488:	dd400515 	stw	r21,20(sp)
    148c:	dd000415 	stw	r20,16(sp)
    1490:	dcc00315 	stw	r19,12(sp)
    1494:	dc800215 	stw	r18,8(sp)
    1498:	dc000015 	stw	r16,0(sp)
   int x,y;
//   short result = 0;

   for (y = 1 ; y < (sobel_height-1) ; y++) {
    149c:	8c7fffc4 	addi	r17,r17,-1
    14a0:	00800044 	movi	r2,1
    14a4:	14402e0e 	bge	r2,r17,1560 <sobel_x+0xf4>
    14a8:	d366d317 	ldw	r13,-25780(gp)
    14ac:	d3e6d617 	ldw	r15,-25768(gp)
    14b0:	03800084 	movi	r14,2
    14b4:	6b65883a 	add	r18,r13,r13
    14b8:	9385883a 	add	r2,r18,r14
    14bc:	2359883a 	add	r12,r4,r13
    14c0:	789f883a 	add	r15,r15,r2
      for (x = 1 ; x < (sobel_width-1) ; x++) {
    14c4:	7027883a 	mov	r19,r14
    14c8:	736bc83a 	sub	r21,r14,r13
    14cc:	6ba9883a 	add	r20,r13,r14
    14d0:	9b402f0e 	bge	r19,r13,1590 <sobel_x+0x124>
    14d4:	637f883a 	add	ra,r12,r13
    14d8:	7021883a 	mov	r16,r14
    14dc:	6357c83a 	sub	r11,r12,r13
    14e0:	ab0b883a 	add	r5,r21,r12
    14e4:	62800084 	addi	r10,r12,2
    14e8:	f813883a 	mov	r9,ra
    14ec:	a311883a 	add	r8,r20,r12
    14f0:	780f883a 	mov	r7,r15
    14f4:	600d883a 	mov	r6,r12
         sobel_x_result[y*sobel_width+x] = sobel_mac(source,x,y,gx_array,sobel_width);
    14f8:	29000003 	ldbu	r4,0(r5)
    14fc:	40c00003 	ldbu	r3,0(r8)
    1500:	37000003 	ldbu	fp,0(r6)
    1504:	50800003 	ldbu	r2,0(r10)
    1508:	20c7883a 	add	r3,r4,r3
    150c:	5dc00003 	ldbu	r23,0(r11)
    1510:	1f07c83a 	sub	r3,r3,fp
    1514:	4d800003 	ldbu	r22,0(r9)
    1518:	1f09c83a 	sub	r4,r3,fp
    151c:	1087883a 	add	r3,r2,r2
    1520:	20c7883a 	add	r3,r4,r3
    1524:	1dc5c83a 	sub	r2,r3,r23
    1528:	1585c83a 	sub	r2,r2,r22
    152c:	3880000d 	sth	r2,0(r7)
    1530:	29400044 	addi	r5,r5,1
    1534:	5ac00044 	addi	r11,r11,1
    1538:	31800044 	addi	r6,r6,1
    153c:	52800044 	addi	r10,r10,1
    1540:	4a400044 	addi	r9,r9,1
    1544:	42000044 	addi	r8,r8,1
    1548:	39c00084 	addi	r7,r7,2
void sobel_x( unsigned char *source ) {
   int x,y;
//   short result = 0;

   for (y = 1 ; y < (sobel_height-1) ; y++) {
      for (x = 1 ; x < (sobel_width-1) ; x++) {
    154c:	617fea1e 	bne	r12,r5,14f8 <__alt_data_end+0xff0014f8>
    1550:	73800044 	addi	r14,r14,1
    1554:	f819883a 	mov	r12,ra
    1558:	7c9f883a 	add	r15,r15,r18

void sobel_x( unsigned char *source ) {
   int x,y;
//   short result = 0;

   for (y = 1 ; y < (sobel_height-1) ; y++) {
    155c:	847fdc16 	blt	r16,r17,14d0 <__alt_data_end+0xff0014d0>
//		  result += pgx_array[7] * source[(y+1)*sobel_width+x];
//		  result += pgx_array[8] * source[(y+1)*sobel_width+(x+1)];
//		  sobel_x_result[(y*sobel_width)+x] = result;
      }
   }
}
    1560:	dfc00917 	ldw	ra,36(sp)
    1564:	df000817 	ldw	fp,32(sp)
    1568:	ddc00717 	ldw	r23,28(sp)
    156c:	dd800617 	ldw	r22,24(sp)
    1570:	dd400517 	ldw	r21,20(sp)
    1574:	dd000417 	ldw	r20,16(sp)
    1578:	dcc00317 	ldw	r19,12(sp)
    157c:	dc800217 	ldw	r18,8(sp)
    1580:	dc400117 	ldw	r17,4(sp)
    1584:	dc000017 	ldw	r16,0(sp)
    1588:	dec00a04 	addi	sp,sp,40
    158c:	f800283a 	ret
    1590:	7021883a 	mov	r16,r14
    1594:	637f883a 	add	ra,r12,r13
    1598:	73800044 	addi	r14,r14,1
    159c:	f819883a 	mov	r12,ra
    15a0:	7c9f883a 	add	r15,r15,r18

void sobel_x( unsigned char *source ) {
   int x,y;
//   short result = 0;

   for (y = 1 ; y < (sobel_height-1) ; y++) {
    15a4:	847fca16 	blt	r16,r17,14d0 <__alt_data_end+0xff0014d0>
    15a8:	003fed06 	br	1560 <__alt_data_end+0xff001560>

000015ac <sobel_x_with_rgb>:
//		  sobel_x_result[(y*sobel_width)+x] = result;
      }
   }
}

void sobel_x_with_rgb( unsigned char *source ) {
    15ac:	defff504 	addi	sp,sp,-44
    15b0:	dd800715 	stw	r22,28(sp)
   int x,y;
   short result;

   for (y = 1 ; y < (sobel_height-1) ; y++) {
    15b4:	d5a6d517 	ldw	r22,-25772(gp)
//		  sobel_x_result[(y*sobel_width)+x] = result;
      }
   }
}

void sobel_x_with_rgb( unsigned char *source ) {
    15b8:	dfc00a15 	stw	ra,40(sp)
    15bc:	df000915 	stw	fp,36(sp)
    15c0:	ddc00815 	stw	r23,32(sp)
    15c4:	dd400615 	stw	r21,24(sp)
    15c8:	dd000515 	stw	r20,20(sp)
    15cc:	dcc00415 	stw	r19,16(sp)
    15d0:	dc800315 	stw	r18,12(sp)
    15d4:	dc400215 	stw	r17,8(sp)
    15d8:	dc000115 	stw	r16,4(sp)
   int x,y;
   short result;

   for (y = 1 ; y < (sobel_height-1) ; y++) {
    15dc:	b5bfffc4 	addi	r22,r22,-1
    15e0:	00800044 	movi	r2,1
    15e4:	1580440e 	bge	r2,r22,16f8 <sobel_x_with_rgb+0x14c>
    15e8:	d7e6d317 	ldw	ra,-25780(gp)
    15ec:	d4a6d617 	ldw	r18,-25768(gp)
    15f0:	d466d817 	ldw	r17,-25760(gp)
    15f4:	ffe9883a 	add	r20,ra,ra
    15f8:	a0800084 	addi	r2,r20,2
    15fc:	04000084 	movi	r16,2
    1600:	90a5883a 	add	r18,r18,r2
    1604:	88a3883a 	add	r17,r17,r2
    1608:	fc05883a 	add	r2,ra,r16
    160c:	27df883a 	add	r15,r4,ra
      for (x = 1 ; x < (sobel_width-1) ; x++) {
    1610:	802f883a 	mov	r23,r16
    1614:	87f9c83a 	sub	fp,r16,ra
    1618:	d8800015 	stw	r2,0(sp)
    161c:	bfc02f0e 	bge	r23,ra,16dc <sobel_x_with_rgb+0x130>
    1620:	d8800017 	ldw	r2,0(sp)
    1624:	7fe7883a 	add	r19,r15,ra
    1628:	802b883a 	mov	r21,r16
    162c:	7fdbc83a 	sub	r13,r15,ra
    1630:	e3cf883a 	add	r7,fp,r15
    1634:	7b000084 	addi	r12,r15,2
    1638:	9817883a 	mov	r11,r19
    163c:	13d5883a 	add	r10,r2,r15
    1640:	881d883a 	mov	r14,r17
    1644:	9013883a 	mov	r9,r18
    1648:	7811883a 	mov	r8,r15
    164c:	00000b06 	br	167c <sobel_x_with_rgb+0xd0>
    	  result = sobel_mac(source,x,y,gx_array,sobel_width);
          sobel_x_result[y*sobel_width+x] = result;
          if (result < 0) {
        	  sobel_rgb565[y*sobel_width+x] = ((-result)>>2)<<5;
          } else {
        	  sobel_rgb565[y*sobel_width+x] = ((result>>3)&0x1F)<<11;
    1650:	180692fa 	slli	r3,r3,11
    1654:	70c0000d 	sth	r3,0(r14)
    1658:	39c00044 	addi	r7,r7,1
    165c:	6b400044 	addi	r13,r13,1
    1660:	42000044 	addi	r8,r8,1
    1664:	63000044 	addi	r12,r12,1
    1668:	5ac00044 	addi	r11,r11,1
    166c:	52800044 	addi	r10,r10,1
    1670:	4a400084 	addi	r9,r9,2
    1674:	73800084 	addi	r14,r14,2
void sobel_x_with_rgb( unsigned char *source ) {
   int x,y;
   short result;

   for (y = 1 ; y < (sobel_height-1) ; y++) {
      for (x = 1 ; x < (sobel_width-1) ; x++) {
    1678:	79c01a26 	beq	r15,r7,16e4 <sobel_x_with_rgb+0x138>
	result += filter[3] * pixels[y*width+(x-1)];		// dy = 0, dx = -1
	result += filter[4] * pixels[y*width+x];			// dy = 0, dx = 0
	result += filter[5] * pixels[y*width+(x+1)];		// dy = 0, dx = 1
	result += filter[6] * pixels[(y+1)*width+(x-1)];	// dy = 1, dx = -1
	result += filter[7] * pixels[(y+1)*width+x];		// dy = 1, dx = 0
	result += filter[8] * pixels[(y+1)*width+(x+1)];	// dy = 1, dx = 1
    167c:	50800003 	ldbu	r2,0(r10)
    1680:	39400003 	ldbu	r5,0(r7)
    1684:	41800003 	ldbu	r6,0(r8)
    1688:	60c00003 	ldbu	r3,0(r12)
    168c:	288b883a 	add	r5,r5,r2
    1690:	298bc83a 	sub	r5,r5,r6
    1694:	68800003 	ldbu	r2,0(r13)
    1698:	59000003 	ldbu	r4,0(r11)
    169c:	298bc83a 	sub	r5,r5,r6
    16a0:	18c7883a 	add	r3,r3,r3
    16a4:	28c7883a 	add	r3,r5,r3
    16a8:	1887c83a 	sub	r3,r3,r2
    16ac:	1905c83a 	sub	r2,r3,r4
   short result;

   for (y = 1 ; y < (sobel_height-1) ; y++) {
      for (x = 1 ; x < (sobel_width-1) ; x++) {
    	  result = sobel_mac(source,x,y,gx_array,sobel_width);
          sobel_x_result[y*sobel_width+x] = result;
    16b0:	4880000d 	sth	r2,0(r9)
          if (result < 0) {
    16b4:	10bfffcc 	andi	r2,r2,65535
    16b8:	10a0001c 	xori	r2,r2,32768
    16bc:	10a00004 	addi	r2,r2,-32768
        	  sobel_rgb565[y*sobel_width+x] = ((-result)>>2)<<5;
          } else {
        	  sobel_rgb565[y*sobel_width+x] = ((result>>3)&0x1F)<<11;
    16c0:	1007d0fa 	srai	r3,r2,3

   for (y = 1 ; y < (sobel_height-1) ; y++) {
      for (x = 1 ; x < (sobel_width-1) ; x++) {
    	  result = sobel_mac(source,x,y,gx_array,sobel_width);
          sobel_x_result[y*sobel_width+x] = result;
          if (result < 0) {
    16c4:	103fe20e 	bge	r2,zero,1650 <__alt_data_end+0xff001650>
        	  sobel_rgb565[y*sobel_width+x] = ((-result)>>2)<<5;
    16c8:	0085c83a 	sub	r2,zero,r2
    16cc:	1005d0ba 	srai	r2,r2,2
    16d0:	1004917a 	slli	r2,r2,5
    16d4:	7080000d 	sth	r2,0(r14)
    16d8:	003fdf06 	br	1658 <__alt_data_end+0xff001658>
    16dc:	802b883a 	mov	r21,r16
    16e0:	7fe7883a 	add	r19,r15,ra
    16e4:	84000044 	addi	r16,r16,1
    16e8:	981f883a 	mov	r15,r19
    16ec:	9525883a 	add	r18,r18,r20
    16f0:	8d23883a 	add	r17,r17,r20

void sobel_x_with_rgb( unsigned char *source ) {
   int x,y;
   short result;

   for (y = 1 ; y < (sobel_height-1) ; y++) {
    16f4:	adbfc916 	blt	r21,r22,161c <__alt_data_end+0xff00161c>
          } else {
        	  sobel_rgb565[y*sobel_width+x] = ((result>>3)&0x1F)<<11;
          }
      }
   }
}
    16f8:	dfc00a17 	ldw	ra,40(sp)
    16fc:	df000917 	ldw	fp,36(sp)
    1700:	ddc00817 	ldw	r23,32(sp)
    1704:	dd800717 	ldw	r22,28(sp)
    1708:	dd400617 	ldw	r21,24(sp)
    170c:	dd000517 	ldw	r20,20(sp)
    1710:	dcc00417 	ldw	r19,16(sp)
    1714:	dc800317 	ldw	r18,12(sp)
    1718:	dc400217 	ldw	r17,8(sp)
    171c:	dc000117 	ldw	r16,4(sp)
    1720:	dec00b04 	addi	sp,sp,44
    1724:	f800283a 	ret

00001728 <sobel_y>:

void sobel_y( unsigned char *source ) {
    1728:	defff704 	addi	sp,sp,-36
    172c:	dc400115 	stw	r17,4(sp)
   int x,y;
//   short result = 0;

   for (y = 1 ; y < (sobel_height-1) ; y++) {
    1730:	d466d517 	ldw	r17,-25772(gp)
          }
      }
   }
}

void sobel_y( unsigned char *source ) {
    1734:	dfc00815 	stw	ra,32(sp)
    1738:	ddc00715 	stw	r23,28(sp)
    173c:	dd800615 	stw	r22,24(sp)
    1740:	dd400515 	stw	r21,20(sp)
    1744:	dd000415 	stw	r20,16(sp)
    1748:	dcc00315 	stw	r19,12(sp)
    174c:	dc800215 	stw	r18,8(sp)
    1750:	dc000015 	stw	r16,0(sp)
   int x,y;
//   short result = 0;

   for (y = 1 ; y < (sobel_height-1) ; y++) {
    1754:	8c7fffc4 	addi	r17,r17,-1
    1758:	00800044 	movi	r2,1
    175c:	14402d0e 	bge	r2,r17,1814 <sobel_y+0xec>
    1760:	d3e6d317 	ldw	r15,-25780(gp)
    1764:	d3a6d717 	ldw	r14,-25764(gp)
    1768:	03400084 	movi	r13,2
    176c:	7bff883a 	add	ra,r15,r15
    1770:	fb67883a 	add	r19,ra,r13
    1774:	74dd883a 	add	r14,r14,r19
      for (x = 1 ; x < (sobel_width-1) ; x++) {
    1778:	6825883a 	mov	r18,r13
    177c:	f8a9883a 	add	r20,ra,r2
    1780:	6821883a 	mov	r16,r13
    1784:	93c01f0e 	bge	r18,r15,1804 <sobel_y+0xdc>
    1788:	27cd883a 	add	r6,r4,ra
    178c:	6821883a 	mov	r16,r13
    1790:	22c00044 	addi	r11,r4,1
    1794:	22800084 	addi	r10,r4,2
    1798:	a113883a 	add	r9,r20,r4
    179c:	990b883a 	add	r5,r19,r4
    17a0:	7999883a 	add	r12,r15,r6
    17a4:	7011883a 	mov	r8,r14
    17a8:	200f883a 	mov	r7,r4
         sobel_y_result[y*sobel_width+x] = sobel_mac(source,x,y,gy_array,sobel_width);
    17ac:	3d800003 	ldbu	r22,0(r7)
    17b0:	50c00003 	ldbu	r3,0(r10)
    17b4:	58800003 	ldbu	r2,0(r11)
    17b8:	4d400003 	ldbu	r21,0(r9)
    17bc:	b0c7883a 	add	r3,r22,r3
    17c0:	1085883a 	add	r2,r2,r2
    17c4:	35c00003 	ldbu	r23,0(r6)
    17c8:	1887883a 	add	r3,r3,r2
    17cc:	2d800003 	ldbu	r22,0(r5)
    17d0:	1d47c83a 	sub	r3,r3,r21
    17d4:	1d47c83a 	sub	r3,r3,r21
    17d8:	1dc5c83a 	sub	r2,r3,r23
    17dc:	1585c83a 	sub	r2,r2,r22
    17e0:	4080000d 	sth	r2,0(r8)
    17e4:	29400044 	addi	r5,r5,1
    17e8:	39c00044 	addi	r7,r7,1
    17ec:	5ac00044 	addi	r11,r11,1
    17f0:	52800044 	addi	r10,r10,1
    17f4:	31800044 	addi	r6,r6,1
    17f8:	4a400044 	addi	r9,r9,1
    17fc:	42000084 	addi	r8,r8,2
void sobel_y( unsigned char *source ) {
   int x,y;
//   short result = 0;

   for (y = 1 ; y < (sobel_height-1) ; y++) {
      for (x = 1 ; x < (sobel_width-1) ; x++) {
    1800:	617fea1e 	bne	r12,r5,17ac <__alt_data_end+0xff0017ac>
    1804:	6b400044 	addi	r13,r13,1
    1808:	23c9883a 	add	r4,r4,r15
    180c:	77dd883a 	add	r14,r14,ra

void sobel_y( unsigned char *source ) {
   int x,y;
//   short result = 0;

   for (y = 1 ; y < (sobel_height-1) ; y++) {
    1810:	847fdb16 	blt	r16,r17,1780 <__alt_data_end+0xff001780>
//		  result += pgy_array[7] * source[(y+1)*sobel_width+x];
//		  result += pgy_array[8] * source[(y+1)*sobel_width+(x+1)];
//		  sobel_y_result[(y*sobel_width)+x] = result;
      }
   }
}
    1814:	dfc00817 	ldw	ra,32(sp)
    1818:	ddc00717 	ldw	r23,28(sp)
    181c:	dd800617 	ldw	r22,24(sp)
    1820:	dd400517 	ldw	r21,20(sp)
    1824:	dd000417 	ldw	r20,16(sp)
    1828:	dcc00317 	ldw	r19,12(sp)
    182c:	dc800217 	ldw	r18,8(sp)
    1830:	dc400117 	ldw	r17,4(sp)
    1834:	dc000017 	ldw	r16,0(sp)
    1838:	dec00904 	addi	sp,sp,36
    183c:	f800283a 	ret

00001840 <sobel_y_with_rgb>:

void sobel_y_with_rgb( unsigned char *source ) {
    1840:	defff604 	addi	sp,sp,-40
    1844:	dcc00315 	stw	r19,12(sp)
   int x,y;
   short result;

   for (y = 1 ; y < (sobel_height-1) ; y++) {
    1848:	d4e6d517 	ldw	r19,-25772(gp)
//		  sobel_y_result[(y*sobel_width)+x] = result;
      }
   }
}

void sobel_y_with_rgb( unsigned char *source ) {
    184c:	dfc00915 	stw	ra,36(sp)
    1850:	df000815 	stw	fp,32(sp)
    1854:	ddc00715 	stw	r23,28(sp)
    1858:	dd800615 	stw	r22,24(sp)
    185c:	dd400515 	stw	r21,20(sp)
    1860:	dd000415 	stw	r20,16(sp)
    1864:	dc800215 	stw	r18,8(sp)
    1868:	dc400115 	stw	r17,4(sp)
    186c:	dc000015 	stw	r16,0(sp)
   int x,y;
   short result;

   for (y = 1 ; y < (sobel_height-1) ; y++) {
    1870:	9cffffc4 	addi	r19,r19,-1
    1874:	00800044 	movi	r2,1
    1878:	14c03f0e 	bge	r2,r19,1978 <sobel_y_with_rgb+0x138>
    187c:	d466d317 	ldw	r17,-25780(gp)
    1880:	d426d717 	ldw	r16,-25764(gp)
    1884:	d7e6d817 	ldw	ra,-25760(gp)
    1888:	8c5d883a 	add	r14,r17,r17
    188c:	75000084 	addi	r20,r14,2
    1890:	03c00084 	movi	r15,2
    1894:	8521883a 	add	r16,r16,r20
    1898:	fd3f883a 	add	ra,ra,r20
      for (x = 1 ; x < (sobel_width-1) ; x++) {
    189c:	782b883a 	mov	r21,r15
    18a0:	70ad883a 	add	r22,r14,r2
    18a4:	7825883a 	mov	r18,r15
    18a8:	ac402e0e 	bge	r21,r17,1964 <sobel_y_with_rgb+0x124>
    18ac:	238d883a 	add	r6,r4,r14
    18b0:	7825883a 	mov	r18,r15
    18b4:	22c00044 	addi	r11,r4,1
    18b8:	22800084 	addi	r10,r4,2
    18bc:	b113883a 	add	r9,r22,r4
    18c0:	a10b883a 	add	r5,r20,r4
    18c4:	899b883a 	add	r13,r17,r6
    18c8:	f819883a 	mov	r12,ra
    18cc:	8011883a 	mov	r8,r16
    18d0:	200f883a 	mov	r7,r4
    18d4:	00000b06 	br	1904 <sobel_y_with_rgb+0xc4>
    	  result = sobel_mac(source,x,y,gy_array,sobel_width);
         sobel_y_result[y*sobel_width+x] = result;
         if (result < 0) {
       	  sobel_rgb565[y*sobel_width+x] = ((-result)>>2)<<5;
         } else {
       	  sobel_rgb565[y*sobel_width+x] = ((result>>3)&0x1F)<<11;
    18d8:	180692fa 	slli	r3,r3,11
    18dc:	60c0000d 	sth	r3,0(r12)
    18e0:	29400044 	addi	r5,r5,1
    18e4:	39c00044 	addi	r7,r7,1
    18e8:	5ac00044 	addi	r11,r11,1
    18ec:	52800044 	addi	r10,r10,1
    18f0:	31800044 	addi	r6,r6,1
    18f4:	4a400044 	addi	r9,r9,1
    18f8:	42000084 	addi	r8,r8,2
    18fc:	63000084 	addi	r12,r12,2
void sobel_y_with_rgb( unsigned char *source ) {
   int x,y;
   short result;

   for (y = 1 ; y < (sobel_height-1) ; y++) {
      for (x = 1 ; x < (sobel_width-1) ; x++) {
    1900:	69401826 	beq	r13,r5,1964 <sobel_y_with_rgb+0x124>
	result += filter[3] * pixels[y*width+(x-1)];		// dy = 0, dx = -1
	result += filter[4] * pixels[y*width+x];			// dy = 0, dx = 0
	result += filter[5] * pixels[y*width+(x+1)];		// dy = 0, dx = 1
	result += filter[6] * pixels[(y+1)*width+(x-1)];	// dy = 1, dx = -1
	result += filter[7] * pixels[(y+1)*width+x];		// dy = 1, dx = 0
	result += filter[8] * pixels[(y+1)*width+(x+1)];	// dy = 1, dx = 1
    1904:	50800003 	ldbu	r2,0(r10)
    1908:	3f000003 	ldbu	fp,0(r7)
    190c:	58c00003 	ldbu	r3,0(r11)
    1910:	4dc00003 	ldbu	r23,0(r9)
    1914:	e0b9883a 	add	fp,fp,r2
    1918:	18c7883a 	add	r3,r3,r3
    191c:	30800003 	ldbu	r2,0(r6)
    1920:	e0c7883a 	add	r3,fp,r3
    1924:	1dc7c83a 	sub	r3,r3,r23
    1928:	2f000003 	ldbu	fp,0(r5)
    192c:	1dc7c83a 	sub	r3,r3,r23
    1930:	1885c83a 	sub	r2,r3,r2
    1934:	1705c83a 	sub	r2,r2,fp
   short result;

   for (y = 1 ; y < (sobel_height-1) ; y++) {
      for (x = 1 ; x < (sobel_width-1) ; x++) {
    	  result = sobel_mac(source,x,y,gy_array,sobel_width);
         sobel_y_result[y*sobel_width+x] = result;
    1938:	4080000d 	sth	r2,0(r8)
         if (result < 0) {
    193c:	10bfffcc 	andi	r2,r2,65535
    1940:	10a0001c 	xori	r2,r2,32768
    1944:	10a00004 	addi	r2,r2,-32768
       	  sobel_rgb565[y*sobel_width+x] = ((-result)>>2)<<5;
         } else {
       	  sobel_rgb565[y*sobel_width+x] = ((result>>3)&0x1F)<<11;
    1948:	1007d0fa 	srai	r3,r2,3

   for (y = 1 ; y < (sobel_height-1) ; y++) {
      for (x = 1 ; x < (sobel_width-1) ; x++) {
    	  result = sobel_mac(source,x,y,gy_array,sobel_width);
         sobel_y_result[y*sobel_width+x] = result;
         if (result < 0) {
    194c:	103fe20e 	bge	r2,zero,18d8 <__alt_data_end+0xff0018d8>
       	  sobel_rgb565[y*sobel_width+x] = ((-result)>>2)<<5;
    1950:	0085c83a 	sub	r2,zero,r2
    1954:	1005d0ba 	srai	r2,r2,2
    1958:	1004917a 	slli	r2,r2,5
    195c:	6080000d 	sth	r2,0(r12)
    1960:	003fdf06 	br	18e0 <__alt_data_end+0xff0018e0>
    1964:	7bc00044 	addi	r15,r15,1
    1968:	2449883a 	add	r4,r4,r17
    196c:	83a1883a 	add	r16,r16,r14
    1970:	fbbf883a 	add	ra,ra,r14

void sobel_y_with_rgb( unsigned char *source ) {
   int x,y;
   short result;

   for (y = 1 ; y < (sobel_height-1) ; y++) {
    1974:	94ffcb16 	blt	r18,r19,18a4 <__alt_data_end+0xff0018a4>
         } else {
       	  sobel_rgb565[y*sobel_width+x] = ((result>>3)&0x1F)<<11;
         }
      }
   }
}
    1978:	dfc00917 	ldw	ra,36(sp)
    197c:	df000817 	ldw	fp,32(sp)
    1980:	ddc00717 	ldw	r23,28(sp)
    1984:	dd800617 	ldw	r22,24(sp)
    1988:	dd400517 	ldw	r21,20(sp)
    198c:	dd000417 	ldw	r20,16(sp)
    1990:	dcc00317 	ldw	r19,12(sp)
    1994:	dc800217 	ldw	r18,8(sp)
    1998:	dc400117 	ldw	r17,4(sp)
    199c:	dc000017 	ldw	r16,0(sp)
    19a0:	dec00a04 	addi	sp,sp,40
    19a4:	f800283a 	ret

000019a8 <sobel_threshold>:

void sobel_threshold(short threshold) {
	short sum,value;
	int k;
	int kmax = sobel_height*sobel_width;
    19a8:	d0a6d317 	ldw	r2,-25780(gp)
    19ac:	d2a6d517 	ldw	r10,-25772(gp)
	for(k = 1; k<kmax; k++)
    19b0:	01800044 	movi	r6,1
}

void sobel_threshold(short threshold) {
	short sum,value;
	int k;
	int kmax = sobel_height*sobel_width;
    19b4:	5095383a 	mul	r10,r10,r2
	for(k = 1; k<kmax; k++)
    19b8:	3280210e 	bge	r6,r10,1a40 <sobel_threshold+0x98>
    19bc:	213fffcc 	andi	r4,r4,65535
    19c0:	2120001c 	xori	r4,r4,32768
    19c4:	21200004 	addi	r4,r4,-32768
	{
		value = sobel_x_result[k];
    19c8:	d166d617 	ldw	r5,-25768(gp)
//		sum = (value < 0) ? -value : value;
		sum = (value + (value >> 31)) ^ (value >> 31);		// get absolute value (2 complement)
		value = sobel_y_result[k];
    19cc:	d0e6d717 	ldw	r3,-25764(gp)
    19d0:	3185883a 	add	r2,r6,r6
	short sum,value;
	int k;
	int kmax = sobel_height*sobel_width;
	for(k = 1; k<kmax; k++)
	{
		value = sobel_x_result[k];
    19d4:	288b883a 	add	r5,r5,r2
//		sum = (value < 0) ? -value : value;
		sum = (value + (value >> 31)) ^ (value >> 31);		// get absolute value (2 complement)
		value = sobel_y_result[k];
    19d8:	1887883a 	add	r3,r3,r2
	short sum,value;
	int k;
	int kmax = sobel_height*sobel_width;
	for(k = 1; k<kmax; k++)
	{
		value = sobel_x_result[k];
    19dc:	2880000b 	ldhu	r2,0(r5)
//		sum = (value < 0) ? -value : value;
		sum = (value + (value >> 31)) ^ (value >> 31);		// get absolute value (2 complement)
		value = sobel_y_result[k];
    19e0:	1940000b 	ldhu	r5,0(r3)
//		sum += (value < 0) ? -value : value;
		sum += (value + (value >> 31)) ^ (value >> 31);		// get absolute value (2 complement)
		sobel_result[k] = (sum > threshold) ? 0xFF : 0;
    19e4:	d266d417 	ldw	r9,-25776(gp)
	int kmax = sobel_height*sobel_width;
	for(k = 1; k<kmax; k++)
	{
		value = sobel_x_result[k];
//		sum = (value < 0) ? -value : value;
		sum = (value + (value >> 31)) ^ (value >> 31);		// get absolute value (2 complement)
    19e8:	11ffffcc 	andi	r7,r2,65535
		value = sobel_y_result[k];
//		sum += (value < 0) ? -value : value;
		sum += (value + (value >> 31)) ^ (value >> 31);		// get absolute value (2 complement)
    19ec:	2a3fffcc 	andi	r8,r5,65535
	int kmax = sobel_height*sobel_width;
	for(k = 1; k<kmax; k++)
	{
		value = sobel_x_result[k];
//		sum = (value < 0) ? -value : value;
		sum = (value + (value >> 31)) ^ (value >> 31);		// get absolute value (2 complement)
    19f0:	39e0001c 	xori	r7,r7,32768
		value = sobel_y_result[k];
//		sum += (value < 0) ? -value : value;
		sum += (value + (value >> 31)) ^ (value >> 31);		// get absolute value (2 complement)
    19f4:	4220001c 	xori	r8,r8,32768
	int kmax = sobel_height*sobel_width;
	for(k = 1; k<kmax; k++)
	{
		value = sobel_x_result[k];
//		sum = (value < 0) ? -value : value;
		sum = (value + (value >> 31)) ^ (value >> 31);		// get absolute value (2 complement)
    19f8:	39e00004 	addi	r7,r7,-32768
		value = sobel_y_result[k];
//		sum += (value < 0) ? -value : value;
		sum += (value + (value >> 31)) ^ (value >> 31);		// get absolute value (2 complement)
    19fc:	42200004 	addi	r8,r8,-32768
	int kmax = sobel_height*sobel_width;
	for(k = 1; k<kmax; k++)
	{
		value = sobel_x_result[k];
//		sum = (value < 0) ? -value : value;
		sum = (value + (value >> 31)) ^ (value >> 31);		// get absolute value (2 complement)
    1a00:	380fd7fa 	srai	r7,r7,31
		value = sobel_y_result[k];
//		sum += (value < 0) ? -value : value;
		sum += (value + (value >> 31)) ^ (value >> 31);		// get absolute value (2 complement)
    1a04:	4011d7fa 	srai	r8,r8,31
		sobel_result[k] = (sum > threshold) ? 0xFF : 0;
    1a08:	4993883a 	add	r9,r9,r6
		value = sobel_x_result[k];
//		sum = (value < 0) ? -value : value;
		sum = (value + (value >> 31)) ^ (value >> 31);		// get absolute value (2 complement)
		value = sobel_y_result[k];
//		sum += (value < 0) ? -value : value;
		sum += (value + (value >> 31)) ^ (value >> 31);		// get absolute value (2 complement)
    1a0c:	3887883a 	add	r3,r7,r2
    1a10:	414b883a 	add	r5,r8,r5
    1a14:	414af03a 	xor	r5,r8,r5
    1a18:	38c4f03a 	xor	r2,r7,r3
    1a1c:	2885883a 	add	r2,r5,r2
		sobel_result[k] = (sum > threshold) ? 0xFF : 0;
    1a20:	10bfffcc 	andi	r2,r2,65535
    1a24:	10a0001c 	xori	r2,r2,32768
    1a28:	10a00004 	addi	r2,r2,-32768
    1a2c:	2084803a 	cmplt	r2,r4,r2
    1a30:	0085c83a 	sub	r2,zero,r2
    1a34:	48800005 	stb	r2,0(r9)

void sobel_threshold(short threshold) {
	short sum,value;
	int k;
	int kmax = sobel_height*sobel_width;
	for(k = 1; k<kmax; k++)
    1a38:	31800044 	addi	r6,r6,1
    1a3c:	51bfe21e 	bne	r10,r6,19c8 <__alt_data_end+0xff0019c8>
    1a40:	f800283a 	ret

00001a44 <sobel_complete>:
		sobel_result[k] = (sum > threshold) ? 0xFF : 0;
	}
}

void sobel_complete( unsigned char *source, short threshold)
{
    1a44:	defff604 	addi	sp,sp,-40
    1a48:	dc800215 	stw	r18,8(sp)
   short result = 0;
   int k;
   int kmax = sobel_height*sobel_width;
    1a4c:	d3a6d517 	ldw	r14,-25772(gp)
    1a50:	d4a6d317 	ldw	r18,-25780(gp)
		sobel_result[k] = (sum > threshold) ? 0xFF : 0;
	}
}

void sobel_complete( unsigned char *source, short threshold)
{
    1a54:	dfc00915 	stw	ra,36(sp)
    1a58:	df000815 	stw	fp,32(sp)
   short result = 0;
   int k;
   int kmax = sobel_height*sobel_width;
    1a5c:	939d383a 	mul	r14,r18,r14
		sobel_result[k] = (sum > threshold) ? 0xFF : 0;
	}
}

void sobel_complete( unsigned char *source, short threshold)
{
    1a60:	ddc00715 	stw	r23,28(sp)
    1a64:	dd800615 	stw	r22,24(sp)
    1a68:	dd400515 	stw	r21,20(sp)
    1a6c:	dd000415 	stw	r20,16(sp)
    1a70:	dcc00315 	stw	r19,12(sp)
    1a74:	dc400115 	stw	r17,4(sp)
    1a78:	dc000015 	stw	r16,0(sp)
   short result = 0;
   int k;
   int kmax = sobel_height*sobel_width;
   for(k = 1; k<kmax; k++)
    1a7c:	00800044 	movi	r2,1
    1a80:	1380680e 	bge	r2,r14,1c24 <sobel_complete+0x1e0>
    1a84:	d1e6d617 	ldw	r7,-25768(gp)
    1a88:	0491c83a 	sub	r8,zero,r18
    1a8c:	2219883a 	add	r12,r4,r8
    1a90:	2495c83a 	sub	r10,r4,r18
    1a94:	9497883a 	add	r11,r18,r18
    1a98:	92400084 	addi	r9,r18,2
    1a9c:	52800084 	addi	r10,r10,2
    1aa0:	62e9883a 	add	r20,r12,r11
    1aa4:	2253883a 	add	r9,r4,r9
    1aa8:	70a7883a 	add	r19,r14,r2
    1aac:	2023883a 	mov	r17,r4
    1ab0:	21800084 	addi	r6,r4,2
    1ab4:	a021883a 	mov	r16,r20
    1ab8:	3fc00084 	addi	ra,r7,2
    1abc:	24e7883a 	add	r19,r4,r19
    1ac0:	481f883a 	mov	r15,r9
    1ac4:	501b883a 	mov	r13,r10
     result -= (source[k-1]<<1);			// x<<1 <=> x*=2
     // omitted line due to result += 0;
     result += (source[k+1]<<1);			// x<<1 <=> x*=2
     result -= source[k+sobel_width-1];
     // omitted line due to result += 0;
     result += source[k+sobel_width+1];
    1ac8:	6d400003 	ldbu	r21,0(r13)
    1acc:	7dc00003 	ldbu	r23,0(r15)
    1ad0:	67000003 	ldbu	fp,0(r12)
    1ad4:	30c00003 	ldbu	r3,0(r6)
    1ad8:	80800003 	ldbu	r2,0(r16)
    1adc:	8d800003 	ldbu	r22,0(r17)
    1ae0:	adeb883a 	add	r21,r21,r23
    1ae4:	af2bc83a 	sub	r21,r21,fp
    1ae8:	18c7883a 	add	r3,r3,r3
    1aec:	a8c7883a 	add	r3,r21,r3
    1af0:	1887c83a 	sub	r3,r3,r2
    1af4:	b5ad883a 	add	r22,r22,r22
    1af8:	1d85c83a 	sub	r2,r3,r22
     sobel_x_result[k] = (result + (result >> 31)) ^ (result >> 31);	// stock directly abs value in result array (for threshold purpose)
    1afc:	10ffffcc 	andi	r3,r2,65535
    1b00:	18e0001c 	xori	r3,r3,32768
    1b04:	18e00004 	addi	r3,r3,-32768
    1b08:	1807d7fa 	srai	r3,r3,31
    1b0c:	31800044 	addi	r6,r6,1
    1b10:	63000044 	addi	r12,r12,1
    1b14:	10c5883a 	add	r2,r2,r3
    1b18:	1884f03a 	xor	r2,r3,r2
    1b1c:	f880000d 	sth	r2,0(ra)
    1b20:	6b400044 	addi	r13,r13,1
    1b24:	8c400044 	addi	r17,r17,1
    1b28:	84000044 	addi	r16,r16,1
    1b2c:	7bc00044 	addi	r15,r15,1
    1b30:	ffc00084 	addi	ra,ra,2
void sobel_complete( unsigned char *source, short threshold)
{
   short result = 0;
   int k;
   int kmax = sobel_height*sobel_width;
   for(k = 1; k<kmax; k++)
    1b34:	34ffe41e 	bne	r6,r19,1ac8 <__alt_data_end+0xff001ac8>
    1b38:	d366d717 	ldw	r13,-25764(gp)
    1b3c:	4211883a 	add	r8,r8,r8
    1b40:	249fc83a 	sub	r15,r4,r18
    1b44:	a229883a 	add	r20,r20,r8
    1b48:	92000044 	addi	r8,r18,1
    1b4c:	74a5c83a 	sub	r18,r14,r18
    1b50:	2211883a 	add	r8,r4,r8
    1b54:	7bc00044 	addi	r15,r15,1
    1b58:	a2d7883a 	add	r11,r20,r11
    1b5c:	6c000084 	addi	r16,r13,2
    1b60:	2489883a 	add	r4,r4,r18
     result += (source[k-sobel_width]<<1);	// x<<1 <=> x*=2
     result += source[k-sobel_width+1];
     // omitted line due to result += 0;
     result -= source[k+sobel_width-1];
     result -= (source[k+sobel_width]<<1);	// x<<1 <=> x*=2
     result -= source[k+sobel_width+1];
    1b64:	51800003 	ldbu	r6,0(r10)
    1b68:	78c00003 	ldbu	r3,0(r15)
    1b6c:	a4400003 	ldbu	r17,0(r20)
    1b70:	5c800003 	ldbu	r18,0(r11)
    1b74:	48800003 	ldbu	r2,0(r9)
    1b78:	43000003 	ldbu	r12,0(r8)
    1b7c:	89a3883a 	add	r17,r17,r6
    1b80:	18cd883a 	add	r6,r3,r3
    1b84:	898d883a 	add	r6,r17,r6
    1b88:	3487c83a 	sub	r3,r6,r18
    1b8c:	1887c83a 	sub	r3,r3,r2
    1b90:	6319883a 	add	r12,r12,r12
    1b94:	1b05c83a 	sub	r2,r3,r12
     sobel_y_result[k] = (result + (result >> 31)) ^ (result >> 31);	// stock directly abs value in result array (for threshold purpose)
    1b98:	10ffffcc 	andi	r3,r2,65535
    1b9c:	18e0001c 	xori	r3,r3,32768
    1ba0:	18e00004 	addi	r3,r3,-32768
    1ba4:	1807d7fa 	srai	r3,r3,31
    1ba8:	7bc00044 	addi	r15,r15,1
    1bac:	a5000044 	addi	r20,r20,1
    1bb0:	10c5883a 	add	r2,r2,r3
    1bb4:	1884f03a 	xor	r2,r3,r2
    1bb8:	8080000d 	sth	r2,0(r16)
    1bbc:	52800044 	addi	r10,r10,1
    1bc0:	5ac00044 	addi	r11,r11,1
    1bc4:	42000044 	addi	r8,r8,1
    1bc8:	4a400044 	addi	r9,r9,1
    1bcc:	84000084 	addi	r16,r16,2
     // omitted line due to result += 0;
     result += source[k+sobel_width+1];
     sobel_x_result[k] = (result + (result >> 31)) ^ (result >> 31);	// stock directly abs value in result array (for threshold purpose)
     result = 0;
   }
   for(k = 1; k<kmax; k++)
    1bd0:	23ffe41e 	bne	r4,r15,1b64 <__alt_data_end+0xff001b64>
    1bd4:	297fffcc 	andi	r5,r5,65535
    1bd8:	2960001c 	xori	r5,r5,32768
    1bdc:	29600004 	addi	r5,r5,-32768
    1be0:	00c00044 	movi	r3,1
    1be4:	00000206 	br	1bf0 <sobel_complete+0x1ac>
    1be8:	d1e6d617 	ldw	r7,-25768(gp)
    1bec:	d366d717 	ldw	r13,-25764(gp)
    1bf0:	18c5883a 	add	r2,r3,r3
     result = 0;
   }
   for(k = 1; k<kmax; k++)		// even if sobel_result doesn't use the cache, it is faster to create another loop here (because sobel x,y are using the cache)
   {
     // sobel_threshold in-lining
     sobel_result[k] = ((sobel_x_result[k]+sobel_y_result[k]) > threshold) ? 0xFF : 0;
    1bf4:	388f883a 	add	r7,r7,r2
    1bf8:	6889883a 	add	r4,r13,r2
    1bfc:	2080000f 	ldh	r2,0(r4)
    1c00:	3980000f 	ldh	r6,0(r7)
    1c04:	d126d417 	ldw	r4,-25776(gp)
    1c08:	3085883a 	add	r2,r6,r2
    1c0c:	2884803a 	cmplt	r2,r5,r2
    1c10:	20c9883a 	add	r4,r4,r3
    1c14:	0085c83a 	sub	r2,zero,r2
    1c18:	20800005 	stb	r2,0(r4)
     result -= (source[k+sobel_width]<<1);	// x<<1 <=> x*=2
     result -= source[k+sobel_width+1];
     sobel_y_result[k] = (result + (result >> 31)) ^ (result >> 31);	// stock directly abs value in result array (for threshold purpose)
     result = 0;
   }
   for(k = 1; k<kmax; k++)		// even if sobel_result doesn't use the cache, it is faster to create another loop here (because sobel x,y are using the cache)
    1c1c:	18c00044 	addi	r3,r3,1
    1c20:	1bbff116 	blt	r3,r14,1be8 <__alt_data_end+0xff001be8>
   {
     // sobel_threshold in-lining
     sobel_result[k] = ((sobel_x_result[k]+sobel_y_result[k]) > threshold) ? 0xFF : 0;
   }
}
    1c24:	dfc00917 	ldw	ra,36(sp)
    1c28:	df000817 	ldw	fp,32(sp)
    1c2c:	ddc00717 	ldw	r23,28(sp)
    1c30:	dd800617 	ldw	r22,24(sp)
    1c34:	dd400517 	ldw	r21,20(sp)
    1c38:	dd000417 	ldw	r20,16(sp)
    1c3c:	dcc00317 	ldw	r19,12(sp)
    1c40:	dc800217 	ldw	r18,8(sp)
    1c44:	dc400117 	ldw	r17,4(sp)
    1c48:	dc000017 	ldw	r16,0(sp)
    1c4c:	dec00a04 	addi	sp,sp,40
    1c50:	f800283a 	ret

00001c54 <GetSobel_rgb>:

unsigned short *GetSobel_rgb() {
	return sobel_rgb565;
}
    1c54:	d0a6d817 	ldw	r2,-25760(gp)
    1c58:	f800283a 	ret

00001c5c <GetSobelResult>:

unsigned char *GetSobelResult() {
	return sobel_result;
}
    1c5c:	d0a6d417 	ldw	r2,-25776(gp)
    1c60:	f800283a 	ret

00001c64 <vga_set_pointer>:

#include <system.h>
#include <io.h>

void vga_set_pointer( void* image ) {
	IOWR_32DIRECT(VGA_DMA_0_BASE,0,(int)image);
    1c64:	00804034 	movhi	r2,256
    1c68:	10843404 	addi	r2,r2,4304
    1c6c:	11000035 	stwio	r4,0(r2)
    1c70:	f800283a 	ret

00001c74 <vga_set_swap>:
}

void vga_set_swap(char swap) {
	IOWR_8DIRECT(VGA_DMA_0_BASE,4,swap);
    1c74:	00804034 	movhi	r2,256
    1c78:	10843504 	addi	r2,r2,4308
    1c7c:	11000025 	stbio	r4,0(r2)
    1c80:	f800283a 	ret

00001c84 <malloc>:
    1c84:	00800074 	movhi	r2,1
    1c88:	1088f004 	addi	r2,r2,9152
    1c8c:	200b883a 	mov	r5,r4
    1c90:	11000017 	ldw	r4,0(r2)
    1c94:	0001cac1 	jmpi	1cac <_malloc_r>

00001c98 <free>:
    1c98:	00800074 	movhi	r2,1
    1c9c:	1088f004 	addi	r2,r2,9152
    1ca0:	200b883a 	mov	r5,r4
    1ca4:	11000017 	ldw	r4,0(r2)
    1ca8:	0006afc1 	jmpi	6afc <_free_r>

00001cac <_malloc_r>:
    1cac:	defff504 	addi	sp,sp,-44
    1cb0:	dc800315 	stw	r18,12(sp)
    1cb4:	dfc00a15 	stw	ra,40(sp)
    1cb8:	df000915 	stw	fp,36(sp)
    1cbc:	ddc00815 	stw	r23,32(sp)
    1cc0:	dd800715 	stw	r22,28(sp)
    1cc4:	dd400615 	stw	r21,24(sp)
    1cc8:	dd000515 	stw	r20,20(sp)
    1ccc:	dcc00415 	stw	r19,16(sp)
    1cd0:	dc400215 	stw	r17,8(sp)
    1cd4:	dc000115 	stw	r16,4(sp)
    1cd8:	288002c4 	addi	r2,r5,11
    1cdc:	00c00584 	movi	r3,22
    1ce0:	2025883a 	mov	r18,r4
    1ce4:	18807f2e 	bgeu	r3,r2,1ee4 <_malloc_r+0x238>
    1ce8:	047ffe04 	movi	r17,-8
    1cec:	1462703a 	and	r17,r2,r17
    1cf0:	8800a316 	blt	r17,zero,1f80 <_malloc_r+0x2d4>
    1cf4:	8940a236 	bltu	r17,r5,1f80 <_malloc_r+0x2d4>
    1cf8:	000e9340 	call	e934 <__malloc_lock>
    1cfc:	00807dc4 	movi	r2,503
    1d00:	1441e92e 	bgeu	r2,r17,24a8 <_malloc_r+0x7fc>
    1d04:	8804d27a 	srli	r2,r17,9
    1d08:	1000a126 	beq	r2,zero,1f90 <_malloc_r+0x2e4>
    1d0c:	00c00104 	movi	r3,4
    1d10:	18811e36 	bltu	r3,r2,218c <_malloc_r+0x4e0>
    1d14:	8804d1ba 	srli	r2,r17,6
    1d18:	12000e44 	addi	r8,r2,57
    1d1c:	11c00e04 	addi	r7,r2,56
    1d20:	4209883a 	add	r4,r8,r8
    1d24:	04c00074 	movhi	r19,1
    1d28:	2109883a 	add	r4,r4,r4
    1d2c:	9cc24004 	addi	r19,r19,2304
    1d30:	2109883a 	add	r4,r4,r4
    1d34:	9909883a 	add	r4,r19,r4
    1d38:	24000117 	ldw	r16,4(r4)
    1d3c:	213ffe04 	addi	r4,r4,-8
    1d40:	24009726 	beq	r4,r16,1fa0 <_malloc_r+0x2f4>
    1d44:	80800117 	ldw	r2,4(r16)
    1d48:	01bfff04 	movi	r6,-4
    1d4c:	014003c4 	movi	r5,15
    1d50:	1184703a 	and	r2,r2,r6
    1d54:	1447c83a 	sub	r3,r2,r17
    1d58:	28c00716 	blt	r5,r3,1d78 <_malloc_r+0xcc>
    1d5c:	1800920e 	bge	r3,zero,1fa8 <_malloc_r+0x2fc>
    1d60:	84000317 	ldw	r16,12(r16)
    1d64:	24008e26 	beq	r4,r16,1fa0 <_malloc_r+0x2f4>
    1d68:	80800117 	ldw	r2,4(r16)
    1d6c:	1184703a 	and	r2,r2,r6
    1d70:	1447c83a 	sub	r3,r2,r17
    1d74:	28fff90e 	bge	r5,r3,1d5c <__alt_data_end+0xff001d5c>
    1d78:	3809883a 	mov	r4,r7
    1d7c:	01800074 	movhi	r6,1
    1d80:	9c000417 	ldw	r16,16(r19)
    1d84:	31824004 	addi	r6,r6,2304
    1d88:	32000204 	addi	r8,r6,8
    1d8c:	82013426 	beq	r16,r8,2260 <_malloc_r+0x5b4>
    1d90:	80c00117 	ldw	r3,4(r16)
    1d94:	00bfff04 	movi	r2,-4
    1d98:	188e703a 	and	r7,r3,r2
    1d9c:	3c45c83a 	sub	r2,r7,r17
    1da0:	00c003c4 	movi	r3,15
    1da4:	18811f16 	blt	r3,r2,2224 <_malloc_r+0x578>
    1da8:	32000515 	stw	r8,20(r6)
    1dac:	32000415 	stw	r8,16(r6)
    1db0:	10007f0e 	bge	r2,zero,1fb0 <_malloc_r+0x304>
    1db4:	00807fc4 	movi	r2,511
    1db8:	11c0fd36 	bltu	r2,r7,21b0 <_malloc_r+0x504>
    1dbc:	3806d0fa 	srli	r3,r7,3
    1dc0:	01c00044 	movi	r7,1
    1dc4:	30800117 	ldw	r2,4(r6)
    1dc8:	19400044 	addi	r5,r3,1
    1dcc:	294b883a 	add	r5,r5,r5
    1dd0:	1807d0ba 	srai	r3,r3,2
    1dd4:	294b883a 	add	r5,r5,r5
    1dd8:	294b883a 	add	r5,r5,r5
    1ddc:	298b883a 	add	r5,r5,r6
    1de0:	38c6983a 	sll	r3,r7,r3
    1de4:	29c00017 	ldw	r7,0(r5)
    1de8:	2a7ffe04 	addi	r9,r5,-8
    1dec:	1886b03a 	or	r3,r3,r2
    1df0:	82400315 	stw	r9,12(r16)
    1df4:	81c00215 	stw	r7,8(r16)
    1df8:	30c00115 	stw	r3,4(r6)
    1dfc:	2c000015 	stw	r16,0(r5)
    1e00:	3c000315 	stw	r16,12(r7)
    1e04:	2005d0ba 	srai	r2,r4,2
    1e08:	01400044 	movi	r5,1
    1e0c:	288a983a 	sll	r5,r5,r2
    1e10:	19406f36 	bltu	r3,r5,1fd0 <_malloc_r+0x324>
    1e14:	28c4703a 	and	r2,r5,r3
    1e18:	10000a1e 	bne	r2,zero,1e44 <_malloc_r+0x198>
    1e1c:	00bfff04 	movi	r2,-4
    1e20:	294b883a 	add	r5,r5,r5
    1e24:	2088703a 	and	r4,r4,r2
    1e28:	28c4703a 	and	r2,r5,r3
    1e2c:	21000104 	addi	r4,r4,4
    1e30:	1000041e 	bne	r2,zero,1e44 <_malloc_r+0x198>
    1e34:	294b883a 	add	r5,r5,r5
    1e38:	28c4703a 	and	r2,r5,r3
    1e3c:	21000104 	addi	r4,r4,4
    1e40:	103ffc26 	beq	r2,zero,1e34 <__alt_data_end+0xff001e34>
    1e44:	02bfff04 	movi	r10,-4
    1e48:	024003c4 	movi	r9,15
    1e4c:	21800044 	addi	r6,r4,1
    1e50:	318d883a 	add	r6,r6,r6
    1e54:	318d883a 	add	r6,r6,r6
    1e58:	318d883a 	add	r6,r6,r6
    1e5c:	998d883a 	add	r6,r19,r6
    1e60:	333ffe04 	addi	r12,r6,-8
    1e64:	2017883a 	mov	r11,r4
    1e68:	31800104 	addi	r6,r6,4
    1e6c:	34000017 	ldw	r16,0(r6)
    1e70:	31fffd04 	addi	r7,r6,-12
    1e74:	81c0041e 	bne	r16,r7,1e88 <_malloc_r+0x1dc>
    1e78:	0000fb06 	br	2268 <_malloc_r+0x5bc>
    1e7c:	1801030e 	bge	r3,zero,228c <_malloc_r+0x5e0>
    1e80:	84000317 	ldw	r16,12(r16)
    1e84:	81c0f826 	beq	r16,r7,2268 <_malloc_r+0x5bc>
    1e88:	80800117 	ldw	r2,4(r16)
    1e8c:	1284703a 	and	r2,r2,r10
    1e90:	1447c83a 	sub	r3,r2,r17
    1e94:	48fff90e 	bge	r9,r3,1e7c <__alt_data_end+0xff001e7c>
    1e98:	80800317 	ldw	r2,12(r16)
    1e9c:	81000217 	ldw	r4,8(r16)
    1ea0:	89400054 	ori	r5,r17,1
    1ea4:	81400115 	stw	r5,4(r16)
    1ea8:	20800315 	stw	r2,12(r4)
    1eac:	11000215 	stw	r4,8(r2)
    1eb0:	8463883a 	add	r17,r16,r17
    1eb4:	9c400515 	stw	r17,20(r19)
    1eb8:	9c400415 	stw	r17,16(r19)
    1ebc:	18800054 	ori	r2,r3,1
    1ec0:	88800115 	stw	r2,4(r17)
    1ec4:	8a000315 	stw	r8,12(r17)
    1ec8:	8a000215 	stw	r8,8(r17)
    1ecc:	88e3883a 	add	r17,r17,r3
    1ed0:	88c00015 	stw	r3,0(r17)
    1ed4:	9009883a 	mov	r4,r18
    1ed8:	000e9380 	call	e938 <__malloc_unlock>
    1edc:	80800204 	addi	r2,r16,8
    1ee0:	00001b06 	br	1f50 <_malloc_r+0x2a4>
    1ee4:	04400404 	movi	r17,16
    1ee8:	89402536 	bltu	r17,r5,1f80 <_malloc_r+0x2d4>
    1eec:	000e9340 	call	e934 <__malloc_lock>
    1ef0:	00800184 	movi	r2,6
    1ef4:	01000084 	movi	r4,2
    1ef8:	04c00074 	movhi	r19,1
    1efc:	1085883a 	add	r2,r2,r2
    1f00:	9cc24004 	addi	r19,r19,2304
    1f04:	1085883a 	add	r2,r2,r2
    1f08:	9885883a 	add	r2,r19,r2
    1f0c:	14000117 	ldw	r16,4(r2)
    1f10:	10fffe04 	addi	r3,r2,-8
    1f14:	80c0d926 	beq	r16,r3,227c <_malloc_r+0x5d0>
    1f18:	80c00117 	ldw	r3,4(r16)
    1f1c:	81000317 	ldw	r4,12(r16)
    1f20:	00bfff04 	movi	r2,-4
    1f24:	1884703a 	and	r2,r3,r2
    1f28:	81400217 	ldw	r5,8(r16)
    1f2c:	8085883a 	add	r2,r16,r2
    1f30:	10c00117 	ldw	r3,4(r2)
    1f34:	29000315 	stw	r4,12(r5)
    1f38:	21400215 	stw	r5,8(r4)
    1f3c:	18c00054 	ori	r3,r3,1
    1f40:	10c00115 	stw	r3,4(r2)
    1f44:	9009883a 	mov	r4,r18
    1f48:	000e9380 	call	e938 <__malloc_unlock>
    1f4c:	80800204 	addi	r2,r16,8
    1f50:	dfc00a17 	ldw	ra,40(sp)
    1f54:	df000917 	ldw	fp,36(sp)
    1f58:	ddc00817 	ldw	r23,32(sp)
    1f5c:	dd800717 	ldw	r22,28(sp)
    1f60:	dd400617 	ldw	r21,24(sp)
    1f64:	dd000517 	ldw	r20,20(sp)
    1f68:	dcc00417 	ldw	r19,16(sp)
    1f6c:	dc800317 	ldw	r18,12(sp)
    1f70:	dc400217 	ldw	r17,8(sp)
    1f74:	dc000117 	ldw	r16,4(sp)
    1f78:	dec00b04 	addi	sp,sp,44
    1f7c:	f800283a 	ret
    1f80:	00800304 	movi	r2,12
    1f84:	90800015 	stw	r2,0(r18)
    1f88:	0005883a 	mov	r2,zero
    1f8c:	003ff006 	br	1f50 <__alt_data_end+0xff001f50>
    1f90:	01002004 	movi	r4,128
    1f94:	02001004 	movi	r8,64
    1f98:	01c00fc4 	movi	r7,63
    1f9c:	003f6106 	br	1d24 <__alt_data_end+0xff001d24>
    1fa0:	4009883a 	mov	r4,r8
    1fa4:	003f7506 	br	1d7c <__alt_data_end+0xff001d7c>
    1fa8:	81000317 	ldw	r4,12(r16)
    1fac:	003fde06 	br	1f28 <__alt_data_end+0xff001f28>
    1fb0:	81c5883a 	add	r2,r16,r7
    1fb4:	11400117 	ldw	r5,4(r2)
    1fb8:	9009883a 	mov	r4,r18
    1fbc:	29400054 	ori	r5,r5,1
    1fc0:	11400115 	stw	r5,4(r2)
    1fc4:	000e9380 	call	e938 <__malloc_unlock>
    1fc8:	80800204 	addi	r2,r16,8
    1fcc:	003fe006 	br	1f50 <__alt_data_end+0xff001f50>
    1fd0:	9c000217 	ldw	r16,8(r19)
    1fd4:	00bfff04 	movi	r2,-4
    1fd8:	85800117 	ldw	r22,4(r16)
    1fdc:	b0ac703a 	and	r22,r22,r2
    1fe0:	b4400336 	bltu	r22,r17,1ff0 <_malloc_r+0x344>
    1fe4:	b445c83a 	sub	r2,r22,r17
    1fe8:	00c003c4 	movi	r3,15
    1fec:	18805d16 	blt	r3,r2,2164 <_malloc_r+0x4b8>
    1ff0:	05c00074 	movhi	r23,1
    1ff4:	00800074 	movhi	r2,1
    1ff8:	108fc604 	addi	r2,r2,16152
    1ffc:	bdc8ed04 	addi	r23,r23,9140
    2000:	15400017 	ldw	r21,0(r2)
    2004:	b8c00017 	ldw	r3,0(r23)
    2008:	00bfffc4 	movi	r2,-1
    200c:	858d883a 	add	r6,r16,r22
    2010:	8d6b883a 	add	r21,r17,r21
    2014:	1880ea26 	beq	r3,r2,23c0 <_malloc_r+0x714>
    2018:	ad4403c4 	addi	r21,r21,4111
    201c:	00bc0004 	movi	r2,-4096
    2020:	a8aa703a 	and	r21,r21,r2
    2024:	a80b883a 	mov	r5,r21
    2028:	9009883a 	mov	r4,r18
    202c:	d9800015 	stw	r6,0(sp)
    2030:	00025f80 	call	25f8 <_sbrk_r>
    2034:	1029883a 	mov	r20,r2
    2038:	00bfffc4 	movi	r2,-1
    203c:	d9800017 	ldw	r6,0(sp)
    2040:	a080e826 	beq	r20,r2,23e4 <_malloc_r+0x738>
    2044:	a180a636 	bltu	r20,r6,22e0 <_malloc_r+0x634>
    2048:	07000074 	movhi	fp,1
    204c:	e70fd404 	addi	fp,fp,16208
    2050:	e0800017 	ldw	r2,0(fp)
    2054:	a887883a 	add	r3,r21,r2
    2058:	e0c00015 	stw	r3,0(fp)
    205c:	3500e626 	beq	r6,r20,23f8 <_malloc_r+0x74c>
    2060:	b9000017 	ldw	r4,0(r23)
    2064:	00bfffc4 	movi	r2,-1
    2068:	2080ee26 	beq	r4,r2,2424 <_malloc_r+0x778>
    206c:	a185c83a 	sub	r2,r20,r6
    2070:	10c5883a 	add	r2,r2,r3
    2074:	e0800015 	stw	r2,0(fp)
    2078:	a0c001cc 	andi	r3,r20,7
    207c:	1800bc26 	beq	r3,zero,2370 <_malloc_r+0x6c4>
    2080:	a0e9c83a 	sub	r20,r20,r3
    2084:	00840204 	movi	r2,4104
    2088:	a5000204 	addi	r20,r20,8
    208c:	10c7c83a 	sub	r3,r2,r3
    2090:	a545883a 	add	r2,r20,r21
    2094:	1083ffcc 	andi	r2,r2,4095
    2098:	18abc83a 	sub	r21,r3,r2
    209c:	a80b883a 	mov	r5,r21
    20a0:	9009883a 	mov	r4,r18
    20a4:	00025f80 	call	25f8 <_sbrk_r>
    20a8:	00ffffc4 	movi	r3,-1
    20ac:	10c0e126 	beq	r2,r3,2434 <_malloc_r+0x788>
    20b0:	1505c83a 	sub	r2,r2,r20
    20b4:	1545883a 	add	r2,r2,r21
    20b8:	10800054 	ori	r2,r2,1
    20bc:	e0c00017 	ldw	r3,0(fp)
    20c0:	9d000215 	stw	r20,8(r19)
    20c4:	a0800115 	stw	r2,4(r20)
    20c8:	a8c7883a 	add	r3,r21,r3
    20cc:	e0c00015 	stw	r3,0(fp)
    20d0:	84c00e26 	beq	r16,r19,210c <_malloc_r+0x460>
    20d4:	018003c4 	movi	r6,15
    20d8:	3580a72e 	bgeu	r6,r22,2378 <_malloc_r+0x6cc>
    20dc:	81400117 	ldw	r5,4(r16)
    20e0:	013ffe04 	movi	r4,-8
    20e4:	b0bffd04 	addi	r2,r22,-12
    20e8:	1104703a 	and	r2,r2,r4
    20ec:	2900004c 	andi	r4,r5,1
    20f0:	2088b03a 	or	r4,r4,r2
    20f4:	81000115 	stw	r4,4(r16)
    20f8:	01400144 	movi	r5,5
    20fc:	8089883a 	add	r4,r16,r2
    2100:	21400115 	stw	r5,4(r4)
    2104:	21400215 	stw	r5,8(r4)
    2108:	3080cd36 	bltu	r6,r2,2440 <_malloc_r+0x794>
    210c:	00800074 	movhi	r2,1
    2110:	108fc504 	addi	r2,r2,16148
    2114:	11000017 	ldw	r4,0(r2)
    2118:	20c0012e 	bgeu	r4,r3,2120 <_malloc_r+0x474>
    211c:	10c00015 	stw	r3,0(r2)
    2120:	00800074 	movhi	r2,1
    2124:	108fc404 	addi	r2,r2,16144
    2128:	11000017 	ldw	r4,0(r2)
    212c:	9c000217 	ldw	r16,8(r19)
    2130:	20c0012e 	bgeu	r4,r3,2138 <_malloc_r+0x48c>
    2134:	10c00015 	stw	r3,0(r2)
    2138:	80c00117 	ldw	r3,4(r16)
    213c:	00bfff04 	movi	r2,-4
    2140:	1886703a 	and	r3,r3,r2
    2144:	1c45c83a 	sub	r2,r3,r17
    2148:	1c400236 	bltu	r3,r17,2154 <_malloc_r+0x4a8>
    214c:	00c003c4 	movi	r3,15
    2150:	18800416 	blt	r3,r2,2164 <_malloc_r+0x4b8>
    2154:	9009883a 	mov	r4,r18
    2158:	000e9380 	call	e938 <__malloc_unlock>
    215c:	0005883a 	mov	r2,zero
    2160:	003f7b06 	br	1f50 <__alt_data_end+0xff001f50>
    2164:	88c00054 	ori	r3,r17,1
    2168:	80c00115 	stw	r3,4(r16)
    216c:	8463883a 	add	r17,r16,r17
    2170:	10800054 	ori	r2,r2,1
    2174:	9c400215 	stw	r17,8(r19)
    2178:	88800115 	stw	r2,4(r17)
    217c:	9009883a 	mov	r4,r18
    2180:	000e9380 	call	e938 <__malloc_unlock>
    2184:	80800204 	addi	r2,r16,8
    2188:	003f7106 	br	1f50 <__alt_data_end+0xff001f50>
    218c:	00c00504 	movi	r3,20
    2190:	18804a2e 	bgeu	r3,r2,22bc <_malloc_r+0x610>
    2194:	00c01504 	movi	r3,84
    2198:	18806e36 	bltu	r3,r2,2354 <_malloc_r+0x6a8>
    219c:	8804d33a 	srli	r2,r17,12
    21a0:	12001bc4 	addi	r8,r2,111
    21a4:	11c01b84 	addi	r7,r2,110
    21a8:	4209883a 	add	r4,r8,r8
    21ac:	003edd06 	br	1d24 <__alt_data_end+0xff001d24>
    21b0:	3804d27a 	srli	r2,r7,9
    21b4:	00c00104 	movi	r3,4
    21b8:	1880442e 	bgeu	r3,r2,22cc <_malloc_r+0x620>
    21bc:	00c00504 	movi	r3,20
    21c0:	18808136 	bltu	r3,r2,23c8 <_malloc_r+0x71c>
    21c4:	11401704 	addi	r5,r2,92
    21c8:	10c016c4 	addi	r3,r2,91
    21cc:	294b883a 	add	r5,r5,r5
    21d0:	294b883a 	add	r5,r5,r5
    21d4:	294b883a 	add	r5,r5,r5
    21d8:	994b883a 	add	r5,r19,r5
    21dc:	28800017 	ldw	r2,0(r5)
    21e0:	01800074 	movhi	r6,1
    21e4:	297ffe04 	addi	r5,r5,-8
    21e8:	31824004 	addi	r6,r6,2304
    21ec:	28806526 	beq	r5,r2,2384 <_malloc_r+0x6d8>
    21f0:	01bfff04 	movi	r6,-4
    21f4:	10c00117 	ldw	r3,4(r2)
    21f8:	1986703a 	and	r3,r3,r6
    21fc:	38c0022e 	bgeu	r7,r3,2208 <_malloc_r+0x55c>
    2200:	10800217 	ldw	r2,8(r2)
    2204:	28bffb1e 	bne	r5,r2,21f4 <__alt_data_end+0xff0021f4>
    2208:	11400317 	ldw	r5,12(r2)
    220c:	98c00117 	ldw	r3,4(r19)
    2210:	81400315 	stw	r5,12(r16)
    2214:	80800215 	stw	r2,8(r16)
    2218:	2c000215 	stw	r16,8(r5)
    221c:	14000315 	stw	r16,12(r2)
    2220:	003ef806 	br	1e04 <__alt_data_end+0xff001e04>
    2224:	88c00054 	ori	r3,r17,1
    2228:	80c00115 	stw	r3,4(r16)
    222c:	8463883a 	add	r17,r16,r17
    2230:	34400515 	stw	r17,20(r6)
    2234:	34400415 	stw	r17,16(r6)
    2238:	10c00054 	ori	r3,r2,1
    223c:	8a000315 	stw	r8,12(r17)
    2240:	8a000215 	stw	r8,8(r17)
    2244:	88c00115 	stw	r3,4(r17)
    2248:	88a3883a 	add	r17,r17,r2
    224c:	88800015 	stw	r2,0(r17)
    2250:	9009883a 	mov	r4,r18
    2254:	000e9380 	call	e938 <__malloc_unlock>
    2258:	80800204 	addi	r2,r16,8
    225c:	003f3c06 	br	1f50 <__alt_data_end+0xff001f50>
    2260:	30c00117 	ldw	r3,4(r6)
    2264:	003ee706 	br	1e04 <__alt_data_end+0xff001e04>
    2268:	5ac00044 	addi	r11,r11,1
    226c:	588000cc 	andi	r2,r11,3
    2270:	31800204 	addi	r6,r6,8
    2274:	103efd1e 	bne	r2,zero,1e6c <__alt_data_end+0xff001e6c>
    2278:	00002406 	br	230c <_malloc_r+0x660>
    227c:	14000317 	ldw	r16,12(r2)
    2280:	143f251e 	bne	r2,r16,1f18 <__alt_data_end+0xff001f18>
    2284:	21000084 	addi	r4,r4,2
    2288:	003ebc06 	br	1d7c <__alt_data_end+0xff001d7c>
    228c:	8085883a 	add	r2,r16,r2
    2290:	10c00117 	ldw	r3,4(r2)
    2294:	81000317 	ldw	r4,12(r16)
    2298:	81400217 	ldw	r5,8(r16)
    229c:	18c00054 	ori	r3,r3,1
    22a0:	10c00115 	stw	r3,4(r2)
    22a4:	29000315 	stw	r4,12(r5)
    22a8:	21400215 	stw	r5,8(r4)
    22ac:	9009883a 	mov	r4,r18
    22b0:	000e9380 	call	e938 <__malloc_unlock>
    22b4:	80800204 	addi	r2,r16,8
    22b8:	003f2506 	br	1f50 <__alt_data_end+0xff001f50>
    22bc:	12001704 	addi	r8,r2,92
    22c0:	11c016c4 	addi	r7,r2,91
    22c4:	4209883a 	add	r4,r8,r8
    22c8:	003e9606 	br	1d24 <__alt_data_end+0xff001d24>
    22cc:	3804d1ba 	srli	r2,r7,6
    22d0:	11400e44 	addi	r5,r2,57
    22d4:	10c00e04 	addi	r3,r2,56
    22d8:	294b883a 	add	r5,r5,r5
    22dc:	003fbc06 	br	21d0 <__alt_data_end+0xff0021d0>
    22e0:	84ff5926 	beq	r16,r19,2048 <__alt_data_end+0xff002048>
    22e4:	00800074 	movhi	r2,1
    22e8:	10824004 	addi	r2,r2,2304
    22ec:	14000217 	ldw	r16,8(r2)
    22f0:	00bfff04 	movi	r2,-4
    22f4:	80c00117 	ldw	r3,4(r16)
    22f8:	1886703a 	and	r3,r3,r2
    22fc:	003f9106 	br	2144 <__alt_data_end+0xff002144>
    2300:	60800217 	ldw	r2,8(r12)
    2304:	213fffc4 	addi	r4,r4,-1
    2308:	1300651e 	bne	r2,r12,24a0 <_malloc_r+0x7f4>
    230c:	208000cc 	andi	r2,r4,3
    2310:	633ffe04 	addi	r12,r12,-8
    2314:	103ffa1e 	bne	r2,zero,2300 <__alt_data_end+0xff002300>
    2318:	98800117 	ldw	r2,4(r19)
    231c:	0146303a 	nor	r3,zero,r5
    2320:	1884703a 	and	r2,r3,r2
    2324:	98800115 	stw	r2,4(r19)
    2328:	294b883a 	add	r5,r5,r5
    232c:	117f2836 	bltu	r2,r5,1fd0 <__alt_data_end+0xff001fd0>
    2330:	283f2726 	beq	r5,zero,1fd0 <__alt_data_end+0xff001fd0>
    2334:	2886703a 	and	r3,r5,r2
    2338:	5809883a 	mov	r4,r11
    233c:	183ec31e 	bne	r3,zero,1e4c <__alt_data_end+0xff001e4c>
    2340:	294b883a 	add	r5,r5,r5
    2344:	2886703a 	and	r3,r5,r2
    2348:	21000104 	addi	r4,r4,4
    234c:	183ffc26 	beq	r3,zero,2340 <__alt_data_end+0xff002340>
    2350:	003ebe06 	br	1e4c <__alt_data_end+0xff001e4c>
    2354:	00c05504 	movi	r3,340
    2358:	18801236 	bltu	r3,r2,23a4 <_malloc_r+0x6f8>
    235c:	8804d3fa 	srli	r2,r17,15
    2360:	12001e04 	addi	r8,r2,120
    2364:	11c01dc4 	addi	r7,r2,119
    2368:	4209883a 	add	r4,r8,r8
    236c:	003e6d06 	br	1d24 <__alt_data_end+0xff001d24>
    2370:	00c40004 	movi	r3,4096
    2374:	003f4606 	br	2090 <__alt_data_end+0xff002090>
    2378:	00800044 	movi	r2,1
    237c:	a0800115 	stw	r2,4(r20)
    2380:	003f7406 	br	2154 <__alt_data_end+0xff002154>
    2384:	1805d0ba 	srai	r2,r3,2
    2388:	01c00044 	movi	r7,1
    238c:	30c00117 	ldw	r3,4(r6)
    2390:	388e983a 	sll	r7,r7,r2
    2394:	2805883a 	mov	r2,r5
    2398:	38c6b03a 	or	r3,r7,r3
    239c:	30c00115 	stw	r3,4(r6)
    23a0:	003f9b06 	br	2210 <__alt_data_end+0xff002210>
    23a4:	00c15504 	movi	r3,1364
    23a8:	18801a36 	bltu	r3,r2,2414 <_malloc_r+0x768>
    23ac:	8804d4ba 	srli	r2,r17,18
    23b0:	12001f44 	addi	r8,r2,125
    23b4:	11c01f04 	addi	r7,r2,124
    23b8:	4209883a 	add	r4,r8,r8
    23bc:	003e5906 	br	1d24 <__alt_data_end+0xff001d24>
    23c0:	ad400404 	addi	r21,r21,16
    23c4:	003f1706 	br	2024 <__alt_data_end+0xff002024>
    23c8:	00c01504 	movi	r3,84
    23cc:	18802336 	bltu	r3,r2,245c <_malloc_r+0x7b0>
    23d0:	3804d33a 	srli	r2,r7,12
    23d4:	11401bc4 	addi	r5,r2,111
    23d8:	10c01b84 	addi	r3,r2,110
    23dc:	294b883a 	add	r5,r5,r5
    23e0:	003f7b06 	br	21d0 <__alt_data_end+0xff0021d0>
    23e4:	9c000217 	ldw	r16,8(r19)
    23e8:	00bfff04 	movi	r2,-4
    23ec:	80c00117 	ldw	r3,4(r16)
    23f0:	1886703a 	and	r3,r3,r2
    23f4:	003f5306 	br	2144 <__alt_data_end+0xff002144>
    23f8:	3083ffcc 	andi	r2,r6,4095
    23fc:	103f181e 	bne	r2,zero,2060 <__alt_data_end+0xff002060>
    2400:	99000217 	ldw	r4,8(r19)
    2404:	b545883a 	add	r2,r22,r21
    2408:	10800054 	ori	r2,r2,1
    240c:	20800115 	stw	r2,4(r4)
    2410:	003f3e06 	br	210c <__alt_data_end+0xff00210c>
    2414:	01003f84 	movi	r4,254
    2418:	02001fc4 	movi	r8,127
    241c:	01c01f84 	movi	r7,126
    2420:	003e4006 	br	1d24 <__alt_data_end+0xff001d24>
    2424:	00800074 	movhi	r2,1
    2428:	1088ed04 	addi	r2,r2,9140
    242c:	15000015 	stw	r20,0(r2)
    2430:	003f1106 	br	2078 <__alt_data_end+0xff002078>
    2434:	00800044 	movi	r2,1
    2438:	002b883a 	mov	r21,zero
    243c:	003f1f06 	br	20bc <__alt_data_end+0xff0020bc>
    2440:	81400204 	addi	r5,r16,8
    2444:	9009883a 	mov	r4,r18
    2448:	0006afc0 	call	6afc <_free_r>
    244c:	00800074 	movhi	r2,1
    2450:	108fd404 	addi	r2,r2,16208
    2454:	10c00017 	ldw	r3,0(r2)
    2458:	003f2c06 	br	210c <__alt_data_end+0xff00210c>
    245c:	00c05504 	movi	r3,340
    2460:	18800536 	bltu	r3,r2,2478 <_malloc_r+0x7cc>
    2464:	3804d3fa 	srli	r2,r7,15
    2468:	11401e04 	addi	r5,r2,120
    246c:	10c01dc4 	addi	r3,r2,119
    2470:	294b883a 	add	r5,r5,r5
    2474:	003f5606 	br	21d0 <__alt_data_end+0xff0021d0>
    2478:	00c15504 	movi	r3,1364
    247c:	18800536 	bltu	r3,r2,2494 <_malloc_r+0x7e8>
    2480:	3804d4ba 	srli	r2,r7,18
    2484:	11401f44 	addi	r5,r2,125
    2488:	10c01f04 	addi	r3,r2,124
    248c:	294b883a 	add	r5,r5,r5
    2490:	003f4f06 	br	21d0 <__alt_data_end+0xff0021d0>
    2494:	01403f84 	movi	r5,254
    2498:	00c01f84 	movi	r3,126
    249c:	003f4c06 	br	21d0 <__alt_data_end+0xff0021d0>
    24a0:	98800117 	ldw	r2,4(r19)
    24a4:	003fa006 	br	2328 <__alt_data_end+0xff002328>
    24a8:	8808d0fa 	srli	r4,r17,3
    24ac:	20800044 	addi	r2,r4,1
    24b0:	1085883a 	add	r2,r2,r2
    24b4:	003e9006 	br	1ef8 <__alt_data_end+0xff001ef8>

000024b8 <_printf_r>:
    24b8:	defffd04 	addi	sp,sp,-12
    24bc:	2805883a 	mov	r2,r5
    24c0:	dfc00015 	stw	ra,0(sp)
    24c4:	d9800115 	stw	r6,4(sp)
    24c8:	d9c00215 	stw	r7,8(sp)
    24cc:	21400217 	ldw	r5,8(r4)
    24d0:	d9c00104 	addi	r7,sp,4
    24d4:	100d883a 	mov	r6,r2
    24d8:	00026e40 	call	26e4 <___vfprintf_internal_r>
    24dc:	dfc00017 	ldw	ra,0(sp)
    24e0:	dec00304 	addi	sp,sp,12
    24e4:	f800283a 	ret

000024e8 <printf>:
    24e8:	defffc04 	addi	sp,sp,-16
    24ec:	dfc00015 	stw	ra,0(sp)
    24f0:	d9400115 	stw	r5,4(sp)
    24f4:	d9800215 	stw	r6,8(sp)
    24f8:	d9c00315 	stw	r7,12(sp)
    24fc:	00800074 	movhi	r2,1
    2500:	1088f004 	addi	r2,r2,9152
    2504:	10800017 	ldw	r2,0(r2)
    2508:	200b883a 	mov	r5,r4
    250c:	d9800104 	addi	r6,sp,4
    2510:	11000217 	ldw	r4,8(r2)
    2514:	00048dc0 	call	48dc <__vfprintf_internal>
    2518:	dfc00017 	ldw	ra,0(sp)
    251c:	dec00404 	addi	sp,sp,16
    2520:	f800283a 	ret

00002524 <_puts_r>:
    2524:	defff604 	addi	sp,sp,-40
    2528:	dc000715 	stw	r16,28(sp)
    252c:	2021883a 	mov	r16,r4
    2530:	2809883a 	mov	r4,r5
    2534:	dc400815 	stw	r17,32(sp)
    2538:	dfc00915 	stw	ra,36(sp)
    253c:	2823883a 	mov	r17,r5
    2540:	000264c0 	call	264c <strlen>
    2544:	10c00044 	addi	r3,r2,1
    2548:	d8800115 	stw	r2,4(sp)
    254c:	00800074 	movhi	r2,1
    2550:	10818604 	addi	r2,r2,1560
    2554:	d8800215 	stw	r2,8(sp)
    2558:	00800044 	movi	r2,1
    255c:	d8800315 	stw	r2,12(sp)
    2560:	00800084 	movi	r2,2
    2564:	dc400015 	stw	r17,0(sp)
    2568:	d8c00615 	stw	r3,24(sp)
    256c:	dec00415 	stw	sp,16(sp)
    2570:	d8800515 	stw	r2,20(sp)
    2574:	80000226 	beq	r16,zero,2580 <_puts_r+0x5c>
    2578:	80800e17 	ldw	r2,56(r16)
    257c:	10001426 	beq	r2,zero,25d0 <_puts_r+0xac>
    2580:	81400217 	ldw	r5,8(r16)
    2584:	2880030b 	ldhu	r2,12(r5)
    2588:	10c8000c 	andi	r3,r2,8192
    258c:	1800061e 	bne	r3,zero,25a8 <_puts_r+0x84>
    2590:	29001917 	ldw	r4,100(r5)
    2594:	00f7ffc4 	movi	r3,-8193
    2598:	10880014 	ori	r2,r2,8192
    259c:	20c6703a 	and	r3,r4,r3
    25a0:	2880030d 	sth	r2,12(r5)
    25a4:	28c01915 	stw	r3,100(r5)
    25a8:	d9800404 	addi	r6,sp,16
    25ac:	8009883a 	mov	r4,r16
    25b0:	0006e0c0 	call	6e0c <__sfvwrite_r>
    25b4:	1000091e 	bne	r2,zero,25dc <_puts_r+0xb8>
    25b8:	00800284 	movi	r2,10
    25bc:	dfc00917 	ldw	ra,36(sp)
    25c0:	dc400817 	ldw	r17,32(sp)
    25c4:	dc000717 	ldw	r16,28(sp)
    25c8:	dec00a04 	addi	sp,sp,40
    25cc:	f800283a 	ret
    25d0:	8009883a 	mov	r4,r16
    25d4:	00069880 	call	6988 <__sinit>
    25d8:	003fe906 	br	2580 <__alt_data_end+0xff002580>
    25dc:	00bfffc4 	movi	r2,-1
    25e0:	003ff606 	br	25bc <__alt_data_end+0xff0025bc>

000025e4 <puts>:
    25e4:	00800074 	movhi	r2,1
    25e8:	1088f004 	addi	r2,r2,9152
    25ec:	200b883a 	mov	r5,r4
    25f0:	11000017 	ldw	r4,0(r2)
    25f4:	00025241 	jmpi	2524 <_puts_r>

000025f8 <_sbrk_r>:
    25f8:	defffd04 	addi	sp,sp,-12
    25fc:	dc000015 	stw	r16,0(sp)
    2600:	04000074 	movhi	r16,1
    2604:	dc400115 	stw	r17,4(sp)
    2608:	840fc704 	addi	r16,r16,16156
    260c:	2023883a 	mov	r17,r4
    2610:	2809883a 	mov	r4,r5
    2614:	dfc00215 	stw	ra,8(sp)
    2618:	80000015 	stw	zero,0(r16)
    261c:	000ea280 	call	ea28 <sbrk>
    2620:	00ffffc4 	movi	r3,-1
    2624:	10c00526 	beq	r2,r3,263c <_sbrk_r+0x44>
    2628:	dfc00217 	ldw	ra,8(sp)
    262c:	dc400117 	ldw	r17,4(sp)
    2630:	dc000017 	ldw	r16,0(sp)
    2634:	dec00304 	addi	sp,sp,12
    2638:	f800283a 	ret
    263c:	80c00017 	ldw	r3,0(r16)
    2640:	183ff926 	beq	r3,zero,2628 <__alt_data_end+0xff002628>
    2644:	88c00015 	stw	r3,0(r17)
    2648:	003ff706 	br	2628 <__alt_data_end+0xff002628>

0000264c <strlen>:
    264c:	208000cc 	andi	r2,r4,3
    2650:	10002026 	beq	r2,zero,26d4 <strlen+0x88>
    2654:	20800007 	ldb	r2,0(r4)
    2658:	10002026 	beq	r2,zero,26dc <strlen+0x90>
    265c:	2005883a 	mov	r2,r4
    2660:	00000206 	br	266c <strlen+0x20>
    2664:	10c00007 	ldb	r3,0(r2)
    2668:	18001826 	beq	r3,zero,26cc <strlen+0x80>
    266c:	10800044 	addi	r2,r2,1
    2670:	10c000cc 	andi	r3,r2,3
    2674:	183ffb1e 	bne	r3,zero,2664 <__alt_data_end+0xff002664>
    2678:	10c00017 	ldw	r3,0(r2)
    267c:	01ffbff4 	movhi	r7,65279
    2680:	39ffbfc4 	addi	r7,r7,-257
    2684:	00ca303a 	nor	r5,zero,r3
    2688:	01a02074 	movhi	r6,32897
    268c:	19c7883a 	add	r3,r3,r7
    2690:	31a02004 	addi	r6,r6,-32640
    2694:	1946703a 	and	r3,r3,r5
    2698:	1986703a 	and	r3,r3,r6
    269c:	1800091e 	bne	r3,zero,26c4 <strlen+0x78>
    26a0:	10800104 	addi	r2,r2,4
    26a4:	10c00017 	ldw	r3,0(r2)
    26a8:	19cb883a 	add	r5,r3,r7
    26ac:	00c6303a 	nor	r3,zero,r3
    26b0:	28c6703a 	and	r3,r5,r3
    26b4:	1986703a 	and	r3,r3,r6
    26b8:	183ff926 	beq	r3,zero,26a0 <__alt_data_end+0xff0026a0>
    26bc:	00000106 	br	26c4 <strlen+0x78>
    26c0:	10800044 	addi	r2,r2,1
    26c4:	10c00007 	ldb	r3,0(r2)
    26c8:	183ffd1e 	bne	r3,zero,26c0 <__alt_data_end+0xff0026c0>
    26cc:	1105c83a 	sub	r2,r2,r4
    26d0:	f800283a 	ret
    26d4:	2005883a 	mov	r2,r4
    26d8:	003fe706 	br	2678 <__alt_data_end+0xff002678>
    26dc:	0005883a 	mov	r2,zero
    26e0:	f800283a 	ret

000026e4 <___vfprintf_internal_r>:
    26e4:	deffb804 	addi	sp,sp,-288
    26e8:	dfc04715 	stw	ra,284(sp)
    26ec:	ddc04515 	stw	r23,276(sp)
    26f0:	dd404315 	stw	r21,268(sp)
    26f4:	d9002c15 	stw	r4,176(sp)
    26f8:	282f883a 	mov	r23,r5
    26fc:	302b883a 	mov	r21,r6
    2700:	d9c02d15 	stw	r7,180(sp)
    2704:	df004615 	stw	fp,280(sp)
    2708:	dd804415 	stw	r22,272(sp)
    270c:	dd004215 	stw	r20,264(sp)
    2710:	dcc04115 	stw	r19,260(sp)
    2714:	dc804015 	stw	r18,256(sp)
    2718:	dc403f15 	stw	r17,252(sp)
    271c:	dc003e15 	stw	r16,248(sp)
    2720:	00074fc0 	call	74fc <_localeconv_r>
    2724:	10800017 	ldw	r2,0(r2)
    2728:	1009883a 	mov	r4,r2
    272c:	d8803415 	stw	r2,208(sp)
    2730:	000264c0 	call	264c <strlen>
    2734:	d8803715 	stw	r2,220(sp)
    2738:	d8802c17 	ldw	r2,176(sp)
    273c:	10000226 	beq	r2,zero,2748 <___vfprintf_internal_r+0x64>
    2740:	10800e17 	ldw	r2,56(r2)
    2744:	1000f926 	beq	r2,zero,2b2c <___vfprintf_internal_r+0x448>
    2748:	b880030b 	ldhu	r2,12(r23)
    274c:	10c8000c 	andi	r3,r2,8192
    2750:	1800061e 	bne	r3,zero,276c <___vfprintf_internal_r+0x88>
    2754:	b9001917 	ldw	r4,100(r23)
    2758:	00f7ffc4 	movi	r3,-8193
    275c:	10880014 	ori	r2,r2,8192
    2760:	20c6703a 	and	r3,r4,r3
    2764:	b880030d 	sth	r2,12(r23)
    2768:	b8c01915 	stw	r3,100(r23)
    276c:	10c0020c 	andi	r3,r2,8
    2770:	1800c126 	beq	r3,zero,2a78 <___vfprintf_internal_r+0x394>
    2774:	b8c00417 	ldw	r3,16(r23)
    2778:	1800bf26 	beq	r3,zero,2a78 <___vfprintf_internal_r+0x394>
    277c:	1080068c 	andi	r2,r2,26
    2780:	00c00284 	movi	r3,10
    2784:	10c0c426 	beq	r2,r3,2a98 <___vfprintf_internal_r+0x3b4>
    2788:	d8c00404 	addi	r3,sp,16
    278c:	05000074 	movhi	r20,1
    2790:	d9001e04 	addi	r4,sp,120
    2794:	a5019784 	addi	r20,r20,1630
    2798:	d8c01e15 	stw	r3,120(sp)
    279c:	d8002015 	stw	zero,128(sp)
    27a0:	d8001f15 	stw	zero,124(sp)
    27a4:	d8003315 	stw	zero,204(sp)
    27a8:	d8003615 	stw	zero,216(sp)
    27ac:	d8003815 	stw	zero,224(sp)
    27b0:	1811883a 	mov	r8,r3
    27b4:	d8003915 	stw	zero,228(sp)
    27b8:	d8003a15 	stw	zero,232(sp)
    27bc:	d8002f15 	stw	zero,188(sp)
    27c0:	d9002815 	stw	r4,160(sp)
    27c4:	a8800007 	ldb	r2,0(r21)
    27c8:	10027b26 	beq	r2,zero,31b8 <___vfprintf_internal_r+0xad4>
    27cc:	00c00944 	movi	r3,37
    27d0:	a821883a 	mov	r16,r21
    27d4:	10c0021e 	bne	r2,r3,27e0 <___vfprintf_internal_r+0xfc>
    27d8:	00001406 	br	282c <___vfprintf_internal_r+0x148>
    27dc:	10c00326 	beq	r2,r3,27ec <___vfprintf_internal_r+0x108>
    27e0:	84000044 	addi	r16,r16,1
    27e4:	80800007 	ldb	r2,0(r16)
    27e8:	103ffc1e 	bne	r2,zero,27dc <__alt_data_end+0xff0027dc>
    27ec:	8563c83a 	sub	r17,r16,r21
    27f0:	88000e26 	beq	r17,zero,282c <___vfprintf_internal_r+0x148>
    27f4:	d8c02017 	ldw	r3,128(sp)
    27f8:	d8801f17 	ldw	r2,124(sp)
    27fc:	45400015 	stw	r21,0(r8)
    2800:	1c47883a 	add	r3,r3,r17
    2804:	10800044 	addi	r2,r2,1
    2808:	d8c02015 	stw	r3,128(sp)
    280c:	44400115 	stw	r17,4(r8)
    2810:	d8801f15 	stw	r2,124(sp)
    2814:	00c001c4 	movi	r3,7
    2818:	1880a716 	blt	r3,r2,2ab8 <___vfprintf_internal_r+0x3d4>
    281c:	42000204 	addi	r8,r8,8
    2820:	d9402f17 	ldw	r5,188(sp)
    2824:	2c4b883a 	add	r5,r5,r17
    2828:	d9402f15 	stw	r5,188(sp)
    282c:	80800007 	ldb	r2,0(r16)
    2830:	1000a826 	beq	r2,zero,2ad4 <___vfprintf_internal_r+0x3f0>
    2834:	84400047 	ldb	r17,1(r16)
    2838:	00bfffc4 	movi	r2,-1
    283c:	85400044 	addi	r21,r16,1
    2840:	d8002785 	stb	zero,158(sp)
    2844:	0007883a 	mov	r3,zero
    2848:	000f883a 	mov	r7,zero
    284c:	d8802915 	stw	r2,164(sp)
    2850:	d8003115 	stw	zero,196(sp)
    2854:	0025883a 	mov	r18,zero
    2858:	01401604 	movi	r5,88
    285c:	01800244 	movi	r6,9
    2860:	02800a84 	movi	r10,42
    2864:	02401b04 	movi	r9,108
    2868:	ad400044 	addi	r21,r21,1
    286c:	88bff804 	addi	r2,r17,-32
    2870:	28830436 	bltu	r5,r2,3484 <___vfprintf_internal_r+0xda0>
    2874:	100490ba 	slli	r2,r2,2
    2878:	01000034 	movhi	r4,0
    287c:	210a2304 	addi	r4,r4,10380
    2880:	1105883a 	add	r2,r2,r4
    2884:	10800017 	ldw	r2,0(r2)
    2888:	1000683a 	jmp	r2
    288c:	000033a4 	muli	zero,zero,206
    2890:	00003484 	movi	zero,210
    2894:	00003484 	movi	zero,210
    2898:	000033c4 	movi	zero,207
    289c:	00003484 	movi	zero,210
    28a0:	00003484 	movi	zero,210
    28a4:	00003484 	movi	zero,210
    28a8:	00003484 	movi	zero,210
    28ac:	00003484 	movi	zero,210
    28b0:	00003484 	movi	zero,210
    28b4:	00002b38 	rdprs	zero,zero,172
    28b8:	000032e0 	cmpeqi	zero,zero,203
    28bc:	00003484 	movi	zero,210
    28c0:	00002a00 	call	2a0 <init_camera+0xc8>
    28c4:	00002b60 	cmpeqi	zero,zero,173
    28c8:	00003484 	movi	zero,210
    28cc:	00002ba0 	cmpeqi	zero,zero,174
    28d0:	00002bac 	andhi	zero,zero,174
    28d4:	00002bac 	andhi	zero,zero,174
    28d8:	00002bac 	andhi	zero,zero,174
    28dc:	00002bac 	andhi	zero,zero,174
    28e0:	00002bac 	andhi	zero,zero,174
    28e4:	00002bac 	andhi	zero,zero,174
    28e8:	00002bac 	andhi	zero,zero,174
    28ec:	00002bac 	andhi	zero,zero,174
    28f0:	00002bac 	andhi	zero,zero,174
    28f4:	00003484 	movi	zero,210
    28f8:	00003484 	movi	zero,210
    28fc:	00003484 	movi	zero,210
    2900:	00003484 	movi	zero,210
    2904:	00003484 	movi	zero,210
    2908:	00003484 	movi	zero,210
    290c:	00003484 	movi	zero,210
    2910:	00003484 	movi	zero,210
    2914:	00003484 	movi	zero,210
    2918:	00003484 	movi	zero,210
    291c:	00002be0 	cmpeqi	zero,zero,175
    2920:	00002c9c 	xori	zero,zero,178
    2924:	00003484 	movi	zero,210
    2928:	00002c9c 	xori	zero,zero,178
    292c:	00003484 	movi	zero,210
    2930:	00003484 	movi	zero,210
    2934:	00003484 	movi	zero,210
    2938:	00003484 	movi	zero,210
    293c:	00002d3c 	xorhi	zero,zero,180
    2940:	00003484 	movi	zero,210
    2944:	00003484 	movi	zero,210
    2948:	00002d48 	cmpgei	zero,zero,181
    294c:	00003484 	movi	zero,210
    2950:	00003484 	movi	zero,210
    2954:	00003484 	movi	zero,210
    2958:	00003484 	movi	zero,210
    295c:	00003484 	movi	zero,210
    2960:	000031c0 	call	31c <init_camera+0x144>
    2964:	00003484 	movi	zero,210
    2968:	00003484 	movi	zero,210
    296c:	00003220 	cmpeqi	zero,zero,200
    2970:	00003484 	movi	zero,210
    2974:	00003484 	movi	zero,210
    2978:	00003484 	movi	zero,210
    297c:	00003484 	movi	zero,210
    2980:	00003484 	movi	zero,210
    2984:	00003484 	movi	zero,210
    2988:	00003484 	movi	zero,210
    298c:	00003484 	movi	zero,210
    2990:	00003484 	movi	zero,210
    2994:	00003484 	movi	zero,210
    2998:	00003430 	cmpltui	zero,zero,208
    299c:	000033d0 	cmplti	zero,zero,207
    29a0:	00002c9c 	xori	zero,zero,178
    29a4:	00002c9c 	xori	zero,zero,178
    29a8:	00002c9c 	xori	zero,zero,178
    29ac:	000033e0 	cmpeqi	zero,zero,207
    29b0:	000033d0 	cmplti	zero,zero,207
    29b4:	00003484 	movi	zero,210
    29b8:	00003484 	movi	zero,210
    29bc:	000033ec 	andhi	zero,zero,207
    29c0:	00003484 	movi	zero,210
    29c4:	000033fc 	xorhi	zero,zero,207
    29c8:	000032d0 	cmplti	zero,zero,203
    29cc:	00002a0c 	andi	zero,zero,168
    29d0:	000032f0 	cmpltui	zero,zero,203
    29d4:	00003484 	movi	zero,210
    29d8:	000032fc 	xorhi	zero,zero,203
    29dc:	00003484 	movi	zero,210
    29e0:	00003358 	cmpnei	zero,zero,205
    29e4:	00003484 	movi	zero,210
    29e8:	00003484 	movi	zero,210
    29ec:	00003368 	cmpgeui	zero,zero,205
    29f0:	d9003117 	ldw	r4,196(sp)
    29f4:	d8802d15 	stw	r2,180(sp)
    29f8:	0109c83a 	sub	r4,zero,r4
    29fc:	d9003115 	stw	r4,196(sp)
    2a00:	94800114 	ori	r18,r18,4
    2a04:	ac400007 	ldb	r17,0(r21)
    2a08:	003f9706 	br	2868 <__alt_data_end+0xff002868>
    2a0c:	00800c04 	movi	r2,48
    2a10:	d9002d17 	ldw	r4,180(sp)
    2a14:	d9402917 	ldw	r5,164(sp)
    2a18:	d8802705 	stb	r2,156(sp)
    2a1c:	00801e04 	movi	r2,120
    2a20:	d8802745 	stb	r2,157(sp)
    2a24:	d8002785 	stb	zero,158(sp)
    2a28:	20c00104 	addi	r3,r4,4
    2a2c:	24c00017 	ldw	r19,0(r4)
    2a30:	002d883a 	mov	r22,zero
    2a34:	90800094 	ori	r2,r18,2
    2a38:	28029a16 	blt	r5,zero,34a4 <___vfprintf_internal_r+0xdc0>
    2a3c:	00bfdfc4 	movi	r2,-129
    2a40:	90a4703a 	and	r18,r18,r2
    2a44:	d8c02d15 	stw	r3,180(sp)
    2a48:	94800094 	ori	r18,r18,2
    2a4c:	9802871e 	bne	r19,zero,346c <___vfprintf_internal_r+0xd88>
    2a50:	00800074 	movhi	r2,1
    2a54:	10819004 	addi	r2,r2,1600
    2a58:	d8803915 	stw	r2,228(sp)
    2a5c:	04401e04 	movi	r17,120
    2a60:	d8802917 	ldw	r2,164(sp)
    2a64:	0039883a 	mov	fp,zero
    2a68:	1001e926 	beq	r2,zero,3210 <___vfprintf_internal_r+0xb2c>
    2a6c:	0027883a 	mov	r19,zero
    2a70:	002d883a 	mov	r22,zero
    2a74:	00020506 	br	328c <___vfprintf_internal_r+0xba8>
    2a78:	d9002c17 	ldw	r4,176(sp)
    2a7c:	b80b883a 	mov	r5,r23
    2a80:	00049b40 	call	49b4 <__swsetup_r>
    2a84:	1005ac1e 	bne	r2,zero,4138 <___vfprintf_internal_r+0x1a54>
    2a88:	b880030b 	ldhu	r2,12(r23)
    2a8c:	00c00284 	movi	r3,10
    2a90:	1080068c 	andi	r2,r2,26
    2a94:	10ff3c1e 	bne	r2,r3,2788 <__alt_data_end+0xff002788>
    2a98:	b880038f 	ldh	r2,14(r23)
    2a9c:	103f3a16 	blt	r2,zero,2788 <__alt_data_end+0xff002788>
    2aa0:	d9c02d17 	ldw	r7,180(sp)
    2aa4:	d9002c17 	ldw	r4,176(sp)
    2aa8:	a80d883a 	mov	r6,r21
    2aac:	b80b883a 	mov	r5,r23
    2ab0:	00048f80 	call	48f8 <__sbprintf>
    2ab4:	00001106 	br	2afc <___vfprintf_internal_r+0x418>
    2ab8:	d9002c17 	ldw	r4,176(sp)
    2abc:	d9801e04 	addi	r6,sp,120
    2ac0:	b80b883a 	mov	r5,r23
    2ac4:	00094800 	call	9480 <__sprint_r>
    2ac8:	1000081e 	bne	r2,zero,2aec <___vfprintf_internal_r+0x408>
    2acc:	da000404 	addi	r8,sp,16
    2ad0:	003f5306 	br	2820 <__alt_data_end+0xff002820>
    2ad4:	d8802017 	ldw	r2,128(sp)
    2ad8:	10000426 	beq	r2,zero,2aec <___vfprintf_internal_r+0x408>
    2adc:	d9002c17 	ldw	r4,176(sp)
    2ae0:	d9801e04 	addi	r6,sp,120
    2ae4:	b80b883a 	mov	r5,r23
    2ae8:	00094800 	call	9480 <__sprint_r>
    2aec:	b880030b 	ldhu	r2,12(r23)
    2af0:	1080100c 	andi	r2,r2,64
    2af4:	1005901e 	bne	r2,zero,4138 <___vfprintf_internal_r+0x1a54>
    2af8:	d8802f17 	ldw	r2,188(sp)
    2afc:	dfc04717 	ldw	ra,284(sp)
    2b00:	df004617 	ldw	fp,280(sp)
    2b04:	ddc04517 	ldw	r23,276(sp)
    2b08:	dd804417 	ldw	r22,272(sp)
    2b0c:	dd404317 	ldw	r21,268(sp)
    2b10:	dd004217 	ldw	r20,264(sp)
    2b14:	dcc04117 	ldw	r19,260(sp)
    2b18:	dc804017 	ldw	r18,256(sp)
    2b1c:	dc403f17 	ldw	r17,252(sp)
    2b20:	dc003e17 	ldw	r16,248(sp)
    2b24:	dec04804 	addi	sp,sp,288
    2b28:	f800283a 	ret
    2b2c:	d9002c17 	ldw	r4,176(sp)
    2b30:	00069880 	call	6988 <__sinit>
    2b34:	003f0406 	br	2748 <__alt_data_end+0xff002748>
    2b38:	d8802d17 	ldw	r2,180(sp)
    2b3c:	d9002d17 	ldw	r4,180(sp)
    2b40:	10800017 	ldw	r2,0(r2)
    2b44:	d8803115 	stw	r2,196(sp)
    2b48:	20800104 	addi	r2,r4,4
    2b4c:	d9003117 	ldw	r4,196(sp)
    2b50:	203fa716 	blt	r4,zero,29f0 <__alt_data_end+0xff0029f0>
    2b54:	d8802d15 	stw	r2,180(sp)
    2b58:	ac400007 	ldb	r17,0(r21)
    2b5c:	003f4206 	br	2868 <__alt_data_end+0xff002868>
    2b60:	ac400007 	ldb	r17,0(r21)
    2b64:	aac00044 	addi	r11,r21,1
    2b68:	8a872826 	beq	r17,r10,480c <___vfprintf_internal_r+0x2128>
    2b6c:	88bff404 	addi	r2,r17,-48
    2b70:	0009883a 	mov	r4,zero
    2b74:	30867d36 	bltu	r6,r2,456c <___vfprintf_internal_r+0x1e88>
    2b78:	5c400007 	ldb	r17,0(r11)
    2b7c:	210002a4 	muli	r4,r4,10
    2b80:	5d400044 	addi	r21,r11,1
    2b84:	a817883a 	mov	r11,r21
    2b88:	2089883a 	add	r4,r4,r2
    2b8c:	88bff404 	addi	r2,r17,-48
    2b90:	30bff92e 	bgeu	r6,r2,2b78 <__alt_data_end+0xff002b78>
    2b94:	2005c916 	blt	r4,zero,42bc <___vfprintf_internal_r+0x1bd8>
    2b98:	d9002915 	stw	r4,164(sp)
    2b9c:	003f3306 	br	286c <__alt_data_end+0xff00286c>
    2ba0:	94802014 	ori	r18,r18,128
    2ba4:	ac400007 	ldb	r17,0(r21)
    2ba8:	003f2f06 	br	2868 <__alt_data_end+0xff002868>
    2bac:	a809883a 	mov	r4,r21
    2bb0:	d8003115 	stw	zero,196(sp)
    2bb4:	88bff404 	addi	r2,r17,-48
    2bb8:	0017883a 	mov	r11,zero
    2bbc:	24400007 	ldb	r17,0(r4)
    2bc0:	5ac002a4 	muli	r11,r11,10
    2bc4:	ad400044 	addi	r21,r21,1
    2bc8:	a809883a 	mov	r4,r21
    2bcc:	12d7883a 	add	r11,r2,r11
    2bd0:	88bff404 	addi	r2,r17,-48
    2bd4:	30bff92e 	bgeu	r6,r2,2bbc <__alt_data_end+0xff002bbc>
    2bd8:	dac03115 	stw	r11,196(sp)
    2bdc:	003f2306 	br	286c <__alt_data_end+0xff00286c>
    2be0:	18c03fcc 	andi	r3,r3,255
    2be4:	18072b1e 	bne	r3,zero,4894 <___vfprintf_internal_r+0x21b0>
    2be8:	94800414 	ori	r18,r18,16
    2bec:	9080080c 	andi	r2,r18,32
    2bf0:	10037b26 	beq	r2,zero,39e0 <___vfprintf_internal_r+0x12fc>
    2bf4:	d9402d17 	ldw	r5,180(sp)
    2bf8:	28800117 	ldw	r2,4(r5)
    2bfc:	2cc00017 	ldw	r19,0(r5)
    2c00:	29400204 	addi	r5,r5,8
    2c04:	d9402d15 	stw	r5,180(sp)
    2c08:	102d883a 	mov	r22,r2
    2c0c:	10044b16 	blt	r2,zero,3d3c <___vfprintf_internal_r+0x1658>
    2c10:	d9402917 	ldw	r5,164(sp)
    2c14:	df002783 	ldbu	fp,158(sp)
    2c18:	2803bc16 	blt	r5,zero,3b0c <___vfprintf_internal_r+0x1428>
    2c1c:	00ffdfc4 	movi	r3,-129
    2c20:	9d84b03a 	or	r2,r19,r22
    2c24:	90e4703a 	and	r18,r18,r3
    2c28:	10017726 	beq	r2,zero,3208 <___vfprintf_internal_r+0xb24>
    2c2c:	b0038326 	beq	r22,zero,3a3c <___vfprintf_internal_r+0x1358>
    2c30:	dc402a15 	stw	r17,168(sp)
    2c34:	dc001e04 	addi	r16,sp,120
    2c38:	b023883a 	mov	r17,r22
    2c3c:	402d883a 	mov	r22,r8
    2c40:	9809883a 	mov	r4,r19
    2c44:	880b883a 	mov	r5,r17
    2c48:	01800284 	movi	r6,10
    2c4c:	000f883a 	mov	r7,zero
    2c50:	000b8780 	call	b878 <__umoddi3>
    2c54:	10800c04 	addi	r2,r2,48
    2c58:	843fffc4 	addi	r16,r16,-1
    2c5c:	9809883a 	mov	r4,r19
    2c60:	880b883a 	mov	r5,r17
    2c64:	80800005 	stb	r2,0(r16)
    2c68:	01800284 	movi	r6,10
    2c6c:	000f883a 	mov	r7,zero
    2c70:	000b3000 	call	b300 <__udivdi3>
    2c74:	1027883a 	mov	r19,r2
    2c78:	10c4b03a 	or	r2,r2,r3
    2c7c:	1823883a 	mov	r17,r3
    2c80:	103fef1e 	bne	r2,zero,2c40 <__alt_data_end+0xff002c40>
    2c84:	d8c02817 	ldw	r3,160(sp)
    2c88:	dc402a17 	ldw	r17,168(sp)
    2c8c:	b011883a 	mov	r8,r22
    2c90:	1c07c83a 	sub	r3,r3,r16
    2c94:	d8c02e15 	stw	r3,184(sp)
    2c98:	00005906 	br	2e00 <___vfprintf_internal_r+0x71c>
    2c9c:	18c03fcc 	andi	r3,r3,255
    2ca0:	1806fa1e 	bne	r3,zero,488c <___vfprintf_internal_r+0x21a8>
    2ca4:	9080020c 	andi	r2,r18,8
    2ca8:	10048a26 	beq	r2,zero,3ed4 <___vfprintf_internal_r+0x17f0>
    2cac:	d8c02d17 	ldw	r3,180(sp)
    2cb0:	d9002d17 	ldw	r4,180(sp)
    2cb4:	d9402d17 	ldw	r5,180(sp)
    2cb8:	18c00017 	ldw	r3,0(r3)
    2cbc:	21000117 	ldw	r4,4(r4)
    2cc0:	29400204 	addi	r5,r5,8
    2cc4:	d8c03615 	stw	r3,216(sp)
    2cc8:	d9003815 	stw	r4,224(sp)
    2ccc:	d9402d15 	stw	r5,180(sp)
    2cd0:	d9003617 	ldw	r4,216(sp)
    2cd4:	d9403817 	ldw	r5,224(sp)
    2cd8:	da003d15 	stw	r8,244(sp)
    2cdc:	04000044 	movi	r16,1
    2ce0:	00090f80 	call	90f8 <__fpclassifyd>
    2ce4:	da003d17 	ldw	r8,244(sp)
    2ce8:	14041f1e 	bne	r2,r16,3d68 <___vfprintf_internal_r+0x1684>
    2cec:	d9003617 	ldw	r4,216(sp)
    2cf0:	d9403817 	ldw	r5,224(sp)
    2cf4:	000d883a 	mov	r6,zero
    2cf8:	000f883a 	mov	r7,zero
    2cfc:	000d25c0 	call	d25c <__ledf2>
    2d00:	da003d17 	ldw	r8,244(sp)
    2d04:	1005be16 	blt	r2,zero,4400 <___vfprintf_internal_r+0x1d1c>
    2d08:	df002783 	ldbu	fp,158(sp)
    2d0c:	008011c4 	movi	r2,71
    2d10:	1445330e 	bge	r2,r17,41e0 <___vfprintf_internal_r+0x1afc>
    2d14:	04000074 	movhi	r16,1
    2d18:	84018804 	addi	r16,r16,1568
    2d1c:	00c000c4 	movi	r3,3
    2d20:	00bfdfc4 	movi	r2,-129
    2d24:	d8c02a15 	stw	r3,168(sp)
    2d28:	90a4703a 	and	r18,r18,r2
    2d2c:	d8c02e15 	stw	r3,184(sp)
    2d30:	d8002915 	stw	zero,164(sp)
    2d34:	d8003215 	stw	zero,200(sp)
    2d38:	00003706 	br	2e18 <___vfprintf_internal_r+0x734>
    2d3c:	94800214 	ori	r18,r18,8
    2d40:	ac400007 	ldb	r17,0(r21)
    2d44:	003ec806 	br	2868 <__alt_data_end+0xff002868>
    2d48:	18c03fcc 	andi	r3,r3,255
    2d4c:	1806db1e 	bne	r3,zero,48bc <___vfprintf_internal_r+0x21d8>
    2d50:	94800414 	ori	r18,r18,16
    2d54:	9080080c 	andi	r2,r18,32
    2d58:	1002d826 	beq	r2,zero,38bc <___vfprintf_internal_r+0x11d8>
    2d5c:	d9402d17 	ldw	r5,180(sp)
    2d60:	d8c02917 	ldw	r3,164(sp)
    2d64:	d8002785 	stb	zero,158(sp)
    2d68:	28800204 	addi	r2,r5,8
    2d6c:	2cc00017 	ldw	r19,0(r5)
    2d70:	2d800117 	ldw	r22,4(r5)
    2d74:	18048f16 	blt	r3,zero,3fb4 <___vfprintf_internal_r+0x18d0>
    2d78:	013fdfc4 	movi	r4,-129
    2d7c:	9d86b03a 	or	r3,r19,r22
    2d80:	d8802d15 	stw	r2,180(sp)
    2d84:	9124703a 	and	r18,r18,r4
    2d88:	1802d91e 	bne	r3,zero,38f0 <___vfprintf_internal_r+0x120c>
    2d8c:	d8c02917 	ldw	r3,164(sp)
    2d90:	0039883a 	mov	fp,zero
    2d94:	1805c326 	beq	r3,zero,44a4 <___vfprintf_internal_r+0x1dc0>
    2d98:	0027883a 	mov	r19,zero
    2d9c:	002d883a 	mov	r22,zero
    2da0:	dc001e04 	addi	r16,sp,120
    2da4:	9806d0fa 	srli	r3,r19,3
    2da8:	b008977a 	slli	r4,r22,29
    2dac:	b02cd0fa 	srli	r22,r22,3
    2db0:	9cc001cc 	andi	r19,r19,7
    2db4:	98800c04 	addi	r2,r19,48
    2db8:	843fffc4 	addi	r16,r16,-1
    2dbc:	20e6b03a 	or	r19,r4,r3
    2dc0:	80800005 	stb	r2,0(r16)
    2dc4:	9d86b03a 	or	r3,r19,r22
    2dc8:	183ff61e 	bne	r3,zero,2da4 <__alt_data_end+0xff002da4>
    2dcc:	90c0004c 	andi	r3,r18,1
    2dd0:	18013b26 	beq	r3,zero,32c0 <___vfprintf_internal_r+0xbdc>
    2dd4:	10803fcc 	andi	r2,r2,255
    2dd8:	1080201c 	xori	r2,r2,128
    2ddc:	10bfe004 	addi	r2,r2,-128
    2de0:	00c00c04 	movi	r3,48
    2de4:	10c13626 	beq	r2,r3,32c0 <___vfprintf_internal_r+0xbdc>
    2de8:	80ffffc5 	stb	r3,-1(r16)
    2dec:	d8c02817 	ldw	r3,160(sp)
    2df0:	80bfffc4 	addi	r2,r16,-1
    2df4:	1021883a 	mov	r16,r2
    2df8:	1887c83a 	sub	r3,r3,r2
    2dfc:	d8c02e15 	stw	r3,184(sp)
    2e00:	d8802e17 	ldw	r2,184(sp)
    2e04:	d9002917 	ldw	r4,164(sp)
    2e08:	1100010e 	bge	r2,r4,2e10 <___vfprintf_internal_r+0x72c>
    2e0c:	2005883a 	mov	r2,r4
    2e10:	d8802a15 	stw	r2,168(sp)
    2e14:	d8003215 	stw	zero,200(sp)
    2e18:	e7003fcc 	andi	fp,fp,255
    2e1c:	e700201c 	xori	fp,fp,128
    2e20:	e73fe004 	addi	fp,fp,-128
    2e24:	e0000326 	beq	fp,zero,2e34 <___vfprintf_internal_r+0x750>
    2e28:	d8c02a17 	ldw	r3,168(sp)
    2e2c:	18c00044 	addi	r3,r3,1
    2e30:	d8c02a15 	stw	r3,168(sp)
    2e34:	90c0008c 	andi	r3,r18,2
    2e38:	d8c02b15 	stw	r3,172(sp)
    2e3c:	18000326 	beq	r3,zero,2e4c <___vfprintf_internal_r+0x768>
    2e40:	d8c02a17 	ldw	r3,168(sp)
    2e44:	18c00084 	addi	r3,r3,2
    2e48:	d8c02a15 	stw	r3,168(sp)
    2e4c:	90c0210c 	andi	r3,r18,132
    2e50:	d8c03015 	stw	r3,192(sp)
    2e54:	1801a31e 	bne	r3,zero,34e4 <___vfprintf_internal_r+0xe00>
    2e58:	d9003117 	ldw	r4,196(sp)
    2e5c:	d8c02a17 	ldw	r3,168(sp)
    2e60:	20e7c83a 	sub	r19,r4,r3
    2e64:	04c19f0e 	bge	zero,r19,34e4 <___vfprintf_internal_r+0xe00>
    2e68:	02400404 	movi	r9,16
    2e6c:	d8c02017 	ldw	r3,128(sp)
    2e70:	d8801f17 	ldw	r2,124(sp)
    2e74:	4cc50d0e 	bge	r9,r19,42ac <___vfprintf_internal_r+0x1bc8>
    2e78:	01400074 	movhi	r5,1
    2e7c:	29419b84 	addi	r5,r5,1646
    2e80:	dc403b15 	stw	r17,236(sp)
    2e84:	d9403515 	stw	r5,212(sp)
    2e88:	9823883a 	mov	r17,r19
    2e8c:	482d883a 	mov	r22,r9
    2e90:	9027883a 	mov	r19,r18
    2e94:	070001c4 	movi	fp,7
    2e98:	8025883a 	mov	r18,r16
    2e9c:	dc002c17 	ldw	r16,176(sp)
    2ea0:	00000306 	br	2eb0 <___vfprintf_internal_r+0x7cc>
    2ea4:	8c7ffc04 	addi	r17,r17,-16
    2ea8:	42000204 	addi	r8,r8,8
    2eac:	b440130e 	bge	r22,r17,2efc <___vfprintf_internal_r+0x818>
    2eb0:	01000074 	movhi	r4,1
    2eb4:	18c00404 	addi	r3,r3,16
    2eb8:	10800044 	addi	r2,r2,1
    2ebc:	21019b84 	addi	r4,r4,1646
    2ec0:	41000015 	stw	r4,0(r8)
    2ec4:	45800115 	stw	r22,4(r8)
    2ec8:	d8c02015 	stw	r3,128(sp)
    2ecc:	d8801f15 	stw	r2,124(sp)
    2ed0:	e0bff40e 	bge	fp,r2,2ea4 <__alt_data_end+0xff002ea4>
    2ed4:	d9801e04 	addi	r6,sp,120
    2ed8:	b80b883a 	mov	r5,r23
    2edc:	8009883a 	mov	r4,r16
    2ee0:	00094800 	call	9480 <__sprint_r>
    2ee4:	103f011e 	bne	r2,zero,2aec <__alt_data_end+0xff002aec>
    2ee8:	8c7ffc04 	addi	r17,r17,-16
    2eec:	d8c02017 	ldw	r3,128(sp)
    2ef0:	d8801f17 	ldw	r2,124(sp)
    2ef4:	da000404 	addi	r8,sp,16
    2ef8:	b47fed16 	blt	r22,r17,2eb0 <__alt_data_end+0xff002eb0>
    2efc:	9021883a 	mov	r16,r18
    2f00:	9825883a 	mov	r18,r19
    2f04:	8827883a 	mov	r19,r17
    2f08:	dc403b17 	ldw	r17,236(sp)
    2f0c:	d9403517 	ldw	r5,212(sp)
    2f10:	98c7883a 	add	r3,r19,r3
    2f14:	10800044 	addi	r2,r2,1
    2f18:	41400015 	stw	r5,0(r8)
    2f1c:	44c00115 	stw	r19,4(r8)
    2f20:	d8c02015 	stw	r3,128(sp)
    2f24:	d8801f15 	stw	r2,124(sp)
    2f28:	010001c4 	movi	r4,7
    2f2c:	2082a316 	blt	r4,r2,39bc <___vfprintf_internal_r+0x12d8>
    2f30:	df002787 	ldb	fp,158(sp)
    2f34:	42000204 	addi	r8,r8,8
    2f38:	e0000c26 	beq	fp,zero,2f6c <___vfprintf_internal_r+0x888>
    2f3c:	d8801f17 	ldw	r2,124(sp)
    2f40:	d9002784 	addi	r4,sp,158
    2f44:	18c00044 	addi	r3,r3,1
    2f48:	10800044 	addi	r2,r2,1
    2f4c:	41000015 	stw	r4,0(r8)
    2f50:	01000044 	movi	r4,1
    2f54:	41000115 	stw	r4,4(r8)
    2f58:	d8c02015 	stw	r3,128(sp)
    2f5c:	d8801f15 	stw	r2,124(sp)
    2f60:	010001c4 	movi	r4,7
    2f64:	20823c16 	blt	r4,r2,3858 <___vfprintf_internal_r+0x1174>
    2f68:	42000204 	addi	r8,r8,8
    2f6c:	d8802b17 	ldw	r2,172(sp)
    2f70:	10000c26 	beq	r2,zero,2fa4 <___vfprintf_internal_r+0x8c0>
    2f74:	d8801f17 	ldw	r2,124(sp)
    2f78:	d9002704 	addi	r4,sp,156
    2f7c:	18c00084 	addi	r3,r3,2
    2f80:	10800044 	addi	r2,r2,1
    2f84:	41000015 	stw	r4,0(r8)
    2f88:	01000084 	movi	r4,2
    2f8c:	41000115 	stw	r4,4(r8)
    2f90:	d8c02015 	stw	r3,128(sp)
    2f94:	d8801f15 	stw	r2,124(sp)
    2f98:	010001c4 	movi	r4,7
    2f9c:	20823616 	blt	r4,r2,3878 <___vfprintf_internal_r+0x1194>
    2fa0:	42000204 	addi	r8,r8,8
    2fa4:	d9003017 	ldw	r4,192(sp)
    2fa8:	00802004 	movi	r2,128
    2fac:	20819926 	beq	r4,r2,3614 <___vfprintf_internal_r+0xf30>
    2fb0:	d9402917 	ldw	r5,164(sp)
    2fb4:	d8802e17 	ldw	r2,184(sp)
    2fb8:	28adc83a 	sub	r22,r5,r2
    2fbc:	0580310e 	bge	zero,r22,3084 <___vfprintf_internal_r+0x9a0>
    2fc0:	07000404 	movi	fp,16
    2fc4:	d8801f17 	ldw	r2,124(sp)
    2fc8:	e584140e 	bge	fp,r22,401c <___vfprintf_internal_r+0x1938>
    2fcc:	01400074 	movhi	r5,1
    2fd0:	29419784 	addi	r5,r5,1630
    2fd4:	dc402915 	stw	r17,164(sp)
    2fd8:	d9402b15 	stw	r5,172(sp)
    2fdc:	b023883a 	mov	r17,r22
    2fe0:	04c001c4 	movi	r19,7
    2fe4:	a82d883a 	mov	r22,r21
    2fe8:	902b883a 	mov	r21,r18
    2fec:	8025883a 	mov	r18,r16
    2ff0:	dc002c17 	ldw	r16,176(sp)
    2ff4:	00000306 	br	3004 <___vfprintf_internal_r+0x920>
    2ff8:	8c7ffc04 	addi	r17,r17,-16
    2ffc:	42000204 	addi	r8,r8,8
    3000:	e440110e 	bge	fp,r17,3048 <___vfprintf_internal_r+0x964>
    3004:	18c00404 	addi	r3,r3,16
    3008:	10800044 	addi	r2,r2,1
    300c:	45000015 	stw	r20,0(r8)
    3010:	47000115 	stw	fp,4(r8)
    3014:	d8c02015 	stw	r3,128(sp)
    3018:	d8801f15 	stw	r2,124(sp)
    301c:	98bff60e 	bge	r19,r2,2ff8 <__alt_data_end+0xff002ff8>
    3020:	d9801e04 	addi	r6,sp,120
    3024:	b80b883a 	mov	r5,r23
    3028:	8009883a 	mov	r4,r16
    302c:	00094800 	call	9480 <__sprint_r>
    3030:	103eae1e 	bne	r2,zero,2aec <__alt_data_end+0xff002aec>
    3034:	8c7ffc04 	addi	r17,r17,-16
    3038:	d8c02017 	ldw	r3,128(sp)
    303c:	d8801f17 	ldw	r2,124(sp)
    3040:	da000404 	addi	r8,sp,16
    3044:	e47fef16 	blt	fp,r17,3004 <__alt_data_end+0xff003004>
    3048:	9021883a 	mov	r16,r18
    304c:	a825883a 	mov	r18,r21
    3050:	b02b883a 	mov	r21,r22
    3054:	882d883a 	mov	r22,r17
    3058:	dc402917 	ldw	r17,164(sp)
    305c:	d9002b17 	ldw	r4,172(sp)
    3060:	1d87883a 	add	r3,r3,r22
    3064:	10800044 	addi	r2,r2,1
    3068:	41000015 	stw	r4,0(r8)
    306c:	45800115 	stw	r22,4(r8)
    3070:	d8c02015 	stw	r3,128(sp)
    3074:	d8801f15 	stw	r2,124(sp)
    3078:	010001c4 	movi	r4,7
    307c:	2081ee16 	blt	r4,r2,3838 <___vfprintf_internal_r+0x1154>
    3080:	42000204 	addi	r8,r8,8
    3084:	9080400c 	andi	r2,r18,256
    3088:	1001181e 	bne	r2,zero,34ec <___vfprintf_internal_r+0xe08>
    308c:	d9402e17 	ldw	r5,184(sp)
    3090:	d8801f17 	ldw	r2,124(sp)
    3094:	44000015 	stw	r16,0(r8)
    3098:	1947883a 	add	r3,r3,r5
    309c:	10800044 	addi	r2,r2,1
    30a0:	41400115 	stw	r5,4(r8)
    30a4:	d8c02015 	stw	r3,128(sp)
    30a8:	d8801f15 	stw	r2,124(sp)
    30ac:	010001c4 	movi	r4,7
    30b0:	2081d316 	blt	r4,r2,3800 <___vfprintf_internal_r+0x111c>
    30b4:	42000204 	addi	r8,r8,8
    30b8:	9480010c 	andi	r18,r18,4
    30bc:	90003226 	beq	r18,zero,3188 <___vfprintf_internal_r+0xaa4>
    30c0:	d9403117 	ldw	r5,196(sp)
    30c4:	d8802a17 	ldw	r2,168(sp)
    30c8:	28a1c83a 	sub	r16,r5,r2
    30cc:	04002e0e 	bge	zero,r16,3188 <___vfprintf_internal_r+0xaa4>
    30d0:	04400404 	movi	r17,16
    30d4:	d8801f17 	ldw	r2,124(sp)
    30d8:	8c04a20e 	bge	r17,r16,4364 <___vfprintf_internal_r+0x1c80>
    30dc:	01400074 	movhi	r5,1
    30e0:	29419b84 	addi	r5,r5,1646
    30e4:	d9403515 	stw	r5,212(sp)
    30e8:	048001c4 	movi	r18,7
    30ec:	dcc02c17 	ldw	r19,176(sp)
    30f0:	00000306 	br	3100 <___vfprintf_internal_r+0xa1c>
    30f4:	843ffc04 	addi	r16,r16,-16
    30f8:	42000204 	addi	r8,r8,8
    30fc:	8c00130e 	bge	r17,r16,314c <___vfprintf_internal_r+0xa68>
    3100:	01000074 	movhi	r4,1
    3104:	18c00404 	addi	r3,r3,16
    3108:	10800044 	addi	r2,r2,1
    310c:	21019b84 	addi	r4,r4,1646
    3110:	41000015 	stw	r4,0(r8)
    3114:	44400115 	stw	r17,4(r8)
    3118:	d8c02015 	stw	r3,128(sp)
    311c:	d8801f15 	stw	r2,124(sp)
    3120:	90bff40e 	bge	r18,r2,30f4 <__alt_data_end+0xff0030f4>
    3124:	d9801e04 	addi	r6,sp,120
    3128:	b80b883a 	mov	r5,r23
    312c:	9809883a 	mov	r4,r19
    3130:	00094800 	call	9480 <__sprint_r>
    3134:	103e6d1e 	bne	r2,zero,2aec <__alt_data_end+0xff002aec>
    3138:	843ffc04 	addi	r16,r16,-16
    313c:	d8c02017 	ldw	r3,128(sp)
    3140:	d8801f17 	ldw	r2,124(sp)
    3144:	da000404 	addi	r8,sp,16
    3148:	8c3fed16 	blt	r17,r16,3100 <__alt_data_end+0xff003100>
    314c:	d9403517 	ldw	r5,212(sp)
    3150:	1c07883a 	add	r3,r3,r16
    3154:	10800044 	addi	r2,r2,1
    3158:	41400015 	stw	r5,0(r8)
    315c:	44000115 	stw	r16,4(r8)
    3160:	d8c02015 	stw	r3,128(sp)
    3164:	d8801f15 	stw	r2,124(sp)
    3168:	010001c4 	movi	r4,7
    316c:	2080060e 	bge	r4,r2,3188 <___vfprintf_internal_r+0xaa4>
    3170:	d9002c17 	ldw	r4,176(sp)
    3174:	d9801e04 	addi	r6,sp,120
    3178:	b80b883a 	mov	r5,r23
    317c:	00094800 	call	9480 <__sprint_r>
    3180:	103e5a1e 	bne	r2,zero,2aec <__alt_data_end+0xff002aec>
    3184:	d8c02017 	ldw	r3,128(sp)
    3188:	d8803117 	ldw	r2,196(sp)
    318c:	d9002a17 	ldw	r4,168(sp)
    3190:	1100010e 	bge	r2,r4,3198 <___vfprintf_internal_r+0xab4>
    3194:	2005883a 	mov	r2,r4
    3198:	d9402f17 	ldw	r5,188(sp)
    319c:	288b883a 	add	r5,r5,r2
    31a0:	d9402f15 	stw	r5,188(sp)
    31a4:	18019e1e 	bne	r3,zero,3820 <___vfprintf_internal_r+0x113c>
    31a8:	a8800007 	ldb	r2,0(r21)
    31ac:	d8001f15 	stw	zero,124(sp)
    31b0:	da000404 	addi	r8,sp,16
    31b4:	103d851e 	bne	r2,zero,27cc <__alt_data_end+0xff0027cc>
    31b8:	a821883a 	mov	r16,r21
    31bc:	003d9b06 	br	282c <__alt_data_end+0xff00282c>
    31c0:	18c03fcc 	andi	r3,r3,255
    31c4:	1805c11e 	bne	r3,zero,48cc <___vfprintf_internal_r+0x21e8>
    31c8:	94800414 	ori	r18,r18,16
    31cc:	9080080c 	andi	r2,r18,32
    31d0:	10020c26 	beq	r2,zero,3a04 <___vfprintf_internal_r+0x1320>
    31d4:	d8802d17 	ldw	r2,180(sp)
    31d8:	d9002917 	ldw	r4,164(sp)
    31dc:	d8002785 	stb	zero,158(sp)
    31e0:	10c00204 	addi	r3,r2,8
    31e4:	14c00017 	ldw	r19,0(r2)
    31e8:	15800117 	ldw	r22,4(r2)
    31ec:	20040f16 	blt	r4,zero,422c <___vfprintf_internal_r+0x1b48>
    31f0:	013fdfc4 	movi	r4,-129
    31f4:	9d84b03a 	or	r2,r19,r22
    31f8:	d8c02d15 	stw	r3,180(sp)
    31fc:	9124703a 	and	r18,r18,r4
    3200:	0039883a 	mov	fp,zero
    3204:	103e891e 	bne	r2,zero,2c2c <__alt_data_end+0xff002c2c>
    3208:	d9002917 	ldw	r4,164(sp)
    320c:	2002c11e 	bne	r4,zero,3d14 <___vfprintf_internal_r+0x1630>
    3210:	d8002915 	stw	zero,164(sp)
    3214:	d8002e15 	stw	zero,184(sp)
    3218:	dc001e04 	addi	r16,sp,120
    321c:	003ef806 	br	2e00 <__alt_data_end+0xff002e00>
    3220:	18c03fcc 	andi	r3,r3,255
    3224:	18059d1e 	bne	r3,zero,489c <___vfprintf_internal_r+0x21b8>
    3228:	01400074 	movhi	r5,1
    322c:	29418b04 	addi	r5,r5,1580
    3230:	d9403915 	stw	r5,228(sp)
    3234:	9080080c 	andi	r2,r18,32
    3238:	10005226 	beq	r2,zero,3384 <___vfprintf_internal_r+0xca0>
    323c:	d8802d17 	ldw	r2,180(sp)
    3240:	14c00017 	ldw	r19,0(r2)
    3244:	15800117 	ldw	r22,4(r2)
    3248:	10800204 	addi	r2,r2,8
    324c:	d8802d15 	stw	r2,180(sp)
    3250:	9080004c 	andi	r2,r18,1
    3254:	10019026 	beq	r2,zero,3898 <___vfprintf_internal_r+0x11b4>
    3258:	9d84b03a 	or	r2,r19,r22
    325c:	10036926 	beq	r2,zero,4004 <___vfprintf_internal_r+0x1920>
    3260:	d8c02917 	ldw	r3,164(sp)
    3264:	00800c04 	movi	r2,48
    3268:	d8802705 	stb	r2,156(sp)
    326c:	dc402745 	stb	r17,157(sp)
    3270:	d8002785 	stb	zero,158(sp)
    3274:	90800094 	ori	r2,r18,2
    3278:	18045d16 	blt	r3,zero,43f0 <___vfprintf_internal_r+0x1d0c>
    327c:	00bfdfc4 	movi	r2,-129
    3280:	90a4703a 	and	r18,r18,r2
    3284:	94800094 	ori	r18,r18,2
    3288:	0039883a 	mov	fp,zero
    328c:	d9003917 	ldw	r4,228(sp)
    3290:	dc001e04 	addi	r16,sp,120
    3294:	988003cc 	andi	r2,r19,15
    3298:	b006973a 	slli	r3,r22,28
    329c:	2085883a 	add	r2,r4,r2
    32a0:	9826d13a 	srli	r19,r19,4
    32a4:	10800003 	ldbu	r2,0(r2)
    32a8:	b02cd13a 	srli	r22,r22,4
    32ac:	843fffc4 	addi	r16,r16,-1
    32b0:	1ce6b03a 	or	r19,r3,r19
    32b4:	80800005 	stb	r2,0(r16)
    32b8:	9d84b03a 	or	r2,r19,r22
    32bc:	103ff51e 	bne	r2,zero,3294 <__alt_data_end+0xff003294>
    32c0:	d8c02817 	ldw	r3,160(sp)
    32c4:	1c07c83a 	sub	r3,r3,r16
    32c8:	d8c02e15 	stw	r3,184(sp)
    32cc:	003ecc06 	br	2e00 <__alt_data_end+0xff002e00>
    32d0:	18c03fcc 	andi	r3,r3,255
    32d4:	183e9f26 	beq	r3,zero,2d54 <__alt_data_end+0xff002d54>
    32d8:	d9c02785 	stb	r7,158(sp)
    32dc:	003e9d06 	br	2d54 <__alt_data_end+0xff002d54>
    32e0:	00c00044 	movi	r3,1
    32e4:	01c00ac4 	movi	r7,43
    32e8:	ac400007 	ldb	r17,0(r21)
    32ec:	003d5e06 	br	2868 <__alt_data_end+0xff002868>
    32f0:	94800814 	ori	r18,r18,32
    32f4:	ac400007 	ldb	r17,0(r21)
    32f8:	003d5b06 	br	2868 <__alt_data_end+0xff002868>
    32fc:	d8c02d17 	ldw	r3,180(sp)
    3300:	d8002785 	stb	zero,158(sp)
    3304:	1c000017 	ldw	r16,0(r3)
    3308:	1cc00104 	addi	r19,r3,4
    330c:	80041926 	beq	r16,zero,4374 <___vfprintf_internal_r+0x1c90>
    3310:	d9002917 	ldw	r4,164(sp)
    3314:	2003d016 	blt	r4,zero,4258 <___vfprintf_internal_r+0x1b74>
    3318:	200d883a 	mov	r6,r4
    331c:	000b883a 	mov	r5,zero
    3320:	8009883a 	mov	r4,r16
    3324:	da003d15 	stw	r8,244(sp)
    3328:	00076e80 	call	76e8 <memchr>
    332c:	da003d17 	ldw	r8,244(sp)
    3330:	10045426 	beq	r2,zero,4484 <___vfprintf_internal_r+0x1da0>
    3334:	1405c83a 	sub	r2,r2,r16
    3338:	d8802e15 	stw	r2,184(sp)
    333c:	1003cc16 	blt	r2,zero,4270 <___vfprintf_internal_r+0x1b8c>
    3340:	df002783 	ldbu	fp,158(sp)
    3344:	d8802a15 	stw	r2,168(sp)
    3348:	dcc02d15 	stw	r19,180(sp)
    334c:	d8002915 	stw	zero,164(sp)
    3350:	d8003215 	stw	zero,200(sp)
    3354:	003eb006 	br	2e18 <__alt_data_end+0xff002e18>
    3358:	18c03fcc 	andi	r3,r3,255
    335c:	183f9b26 	beq	r3,zero,31cc <__alt_data_end+0xff0031cc>
    3360:	d9c02785 	stb	r7,158(sp)
    3364:	003f9906 	br	31cc <__alt_data_end+0xff0031cc>
    3368:	18c03fcc 	andi	r3,r3,255
    336c:	1805551e 	bne	r3,zero,48c4 <___vfprintf_internal_r+0x21e0>
    3370:	01400074 	movhi	r5,1
    3374:	29419004 	addi	r5,r5,1600
    3378:	d9403915 	stw	r5,228(sp)
    337c:	9080080c 	andi	r2,r18,32
    3380:	103fae1e 	bne	r2,zero,323c <__alt_data_end+0xff00323c>
    3384:	9080040c 	andi	r2,r18,16
    3388:	1002de26 	beq	r2,zero,3f04 <___vfprintf_internal_r+0x1820>
    338c:	d8c02d17 	ldw	r3,180(sp)
    3390:	002d883a 	mov	r22,zero
    3394:	1cc00017 	ldw	r19,0(r3)
    3398:	18c00104 	addi	r3,r3,4
    339c:	d8c02d15 	stw	r3,180(sp)
    33a0:	003fab06 	br	3250 <__alt_data_end+0xff003250>
    33a4:	38803fcc 	andi	r2,r7,255
    33a8:	1080201c 	xori	r2,r2,128
    33ac:	10bfe004 	addi	r2,r2,-128
    33b0:	1002d21e 	bne	r2,zero,3efc <___vfprintf_internal_r+0x1818>
    33b4:	00c00044 	movi	r3,1
    33b8:	01c00804 	movi	r7,32
    33bc:	ac400007 	ldb	r17,0(r21)
    33c0:	003d2906 	br	2868 <__alt_data_end+0xff002868>
    33c4:	94800054 	ori	r18,r18,1
    33c8:	ac400007 	ldb	r17,0(r21)
    33cc:	003d2606 	br	2868 <__alt_data_end+0xff002868>
    33d0:	18c03fcc 	andi	r3,r3,255
    33d4:	183e0526 	beq	r3,zero,2bec <__alt_data_end+0xff002bec>
    33d8:	d9c02785 	stb	r7,158(sp)
    33dc:	003e0306 	br	2bec <__alt_data_end+0xff002bec>
    33e0:	94801014 	ori	r18,r18,64
    33e4:	ac400007 	ldb	r17,0(r21)
    33e8:	003d1f06 	br	2868 <__alt_data_end+0xff002868>
    33ec:	ac400007 	ldb	r17,0(r21)
    33f0:	8a438726 	beq	r17,r9,4210 <___vfprintf_internal_r+0x1b2c>
    33f4:	94800414 	ori	r18,r18,16
    33f8:	003d1b06 	br	2868 <__alt_data_end+0xff002868>
    33fc:	18c03fcc 	andi	r3,r3,255
    3400:	1805341e 	bne	r3,zero,48d4 <___vfprintf_internal_r+0x21f0>
    3404:	9080080c 	andi	r2,r18,32
    3408:	1002cd26 	beq	r2,zero,3f40 <___vfprintf_internal_r+0x185c>
    340c:	d9402d17 	ldw	r5,180(sp)
    3410:	d9002f17 	ldw	r4,188(sp)
    3414:	28800017 	ldw	r2,0(r5)
    3418:	2007d7fa 	srai	r3,r4,31
    341c:	29400104 	addi	r5,r5,4
    3420:	d9402d15 	stw	r5,180(sp)
    3424:	11000015 	stw	r4,0(r2)
    3428:	10c00115 	stw	r3,4(r2)
    342c:	003ce506 	br	27c4 <__alt_data_end+0xff0027c4>
    3430:	d8c02d17 	ldw	r3,180(sp)
    3434:	d9002d17 	ldw	r4,180(sp)
    3438:	d8002785 	stb	zero,158(sp)
    343c:	18800017 	ldw	r2,0(r3)
    3440:	21000104 	addi	r4,r4,4
    3444:	00c00044 	movi	r3,1
    3448:	d8c02a15 	stw	r3,168(sp)
    344c:	d8801405 	stb	r2,80(sp)
    3450:	d9002d15 	stw	r4,180(sp)
    3454:	d8c02e15 	stw	r3,184(sp)
    3458:	d8002915 	stw	zero,164(sp)
    345c:	d8003215 	stw	zero,200(sp)
    3460:	dc001404 	addi	r16,sp,80
    3464:	0039883a 	mov	fp,zero
    3468:	003e7206 	br	2e34 <__alt_data_end+0xff002e34>
    346c:	01000074 	movhi	r4,1
    3470:	21019004 	addi	r4,r4,1600
    3474:	0039883a 	mov	fp,zero
    3478:	d9003915 	stw	r4,228(sp)
    347c:	04401e04 	movi	r17,120
    3480:	003f8206 	br	328c <__alt_data_end+0xff00328c>
    3484:	18c03fcc 	andi	r3,r3,255
    3488:	1805061e 	bne	r3,zero,48a4 <___vfprintf_internal_r+0x21c0>
    348c:	883d9126 	beq	r17,zero,2ad4 <__alt_data_end+0xff002ad4>
    3490:	00c00044 	movi	r3,1
    3494:	d8c02a15 	stw	r3,168(sp)
    3498:	dc401405 	stb	r17,80(sp)
    349c:	d8002785 	stb	zero,158(sp)
    34a0:	003fec06 	br	3454 <__alt_data_end+0xff003454>
    34a4:	01400074 	movhi	r5,1
    34a8:	29419004 	addi	r5,r5,1600
    34ac:	d9403915 	stw	r5,228(sp)
    34b0:	d8c02d15 	stw	r3,180(sp)
    34b4:	1025883a 	mov	r18,r2
    34b8:	04401e04 	movi	r17,120
    34bc:	9d84b03a 	or	r2,r19,r22
    34c0:	1000fc1e 	bne	r2,zero,38b4 <___vfprintf_internal_r+0x11d0>
    34c4:	0039883a 	mov	fp,zero
    34c8:	00800084 	movi	r2,2
    34cc:	10803fcc 	andi	r2,r2,255
    34d0:	00c00044 	movi	r3,1
    34d4:	10c20f26 	beq	r2,r3,3d14 <___vfprintf_internal_r+0x1630>
    34d8:	00c00084 	movi	r3,2
    34dc:	10fd6326 	beq	r2,r3,2a6c <__alt_data_end+0xff002a6c>
    34e0:	003e2d06 	br	2d98 <__alt_data_end+0xff002d98>
    34e4:	d8c02017 	ldw	r3,128(sp)
    34e8:	003e9306 	br	2f38 <__alt_data_end+0xff002f38>
    34ec:	00801944 	movi	r2,101
    34f0:	14407e0e 	bge	r2,r17,36ec <___vfprintf_internal_r+0x1008>
    34f4:	d9003617 	ldw	r4,216(sp)
    34f8:	d9403817 	ldw	r5,224(sp)
    34fc:	000d883a 	mov	r6,zero
    3500:	000f883a 	mov	r7,zero
    3504:	d8c03c15 	stw	r3,240(sp)
    3508:	da003d15 	stw	r8,244(sp)
    350c:	000d0f80 	call	d0f8 <__eqdf2>
    3510:	d8c03c17 	ldw	r3,240(sp)
    3514:	da003d17 	ldw	r8,244(sp)
    3518:	1000f71e 	bne	r2,zero,38f8 <___vfprintf_internal_r+0x1214>
    351c:	d8801f17 	ldw	r2,124(sp)
    3520:	01000074 	movhi	r4,1
    3524:	21019704 	addi	r4,r4,1628
    3528:	18c00044 	addi	r3,r3,1
    352c:	10800044 	addi	r2,r2,1
    3530:	41000015 	stw	r4,0(r8)
    3534:	01000044 	movi	r4,1
    3538:	41000115 	stw	r4,4(r8)
    353c:	d8c02015 	stw	r3,128(sp)
    3540:	d8801f15 	stw	r2,124(sp)
    3544:	010001c4 	movi	r4,7
    3548:	2082b816 	blt	r4,r2,402c <___vfprintf_internal_r+0x1948>
    354c:	42000204 	addi	r8,r8,8
    3550:	d8802617 	ldw	r2,152(sp)
    3554:	d9403317 	ldw	r5,204(sp)
    3558:	11400216 	blt	r2,r5,3564 <___vfprintf_internal_r+0xe80>
    355c:	9080004c 	andi	r2,r18,1
    3560:	103ed526 	beq	r2,zero,30b8 <__alt_data_end+0xff0030b8>
    3564:	d8803717 	ldw	r2,220(sp)
    3568:	d9003417 	ldw	r4,208(sp)
    356c:	d9403717 	ldw	r5,220(sp)
    3570:	1887883a 	add	r3,r3,r2
    3574:	d8801f17 	ldw	r2,124(sp)
    3578:	41000015 	stw	r4,0(r8)
    357c:	41400115 	stw	r5,4(r8)
    3580:	10800044 	addi	r2,r2,1
    3584:	d8c02015 	stw	r3,128(sp)
    3588:	d8801f15 	stw	r2,124(sp)
    358c:	010001c4 	movi	r4,7
    3590:	20832916 	blt	r4,r2,4238 <___vfprintf_internal_r+0x1b54>
    3594:	42000204 	addi	r8,r8,8
    3598:	d8803317 	ldw	r2,204(sp)
    359c:	143fffc4 	addi	r16,r2,-1
    35a0:	043ec50e 	bge	zero,r16,30b8 <__alt_data_end+0xff0030b8>
    35a4:	04400404 	movi	r17,16
    35a8:	d8801f17 	ldw	r2,124(sp)
    35ac:	8c00880e 	bge	r17,r16,37d0 <___vfprintf_internal_r+0x10ec>
    35b0:	01400074 	movhi	r5,1
    35b4:	29419784 	addi	r5,r5,1630
    35b8:	d9402b15 	stw	r5,172(sp)
    35bc:	058001c4 	movi	r22,7
    35c0:	dcc02c17 	ldw	r19,176(sp)
    35c4:	00000306 	br	35d4 <___vfprintf_internal_r+0xef0>
    35c8:	42000204 	addi	r8,r8,8
    35cc:	843ffc04 	addi	r16,r16,-16
    35d0:	8c00820e 	bge	r17,r16,37dc <___vfprintf_internal_r+0x10f8>
    35d4:	18c00404 	addi	r3,r3,16
    35d8:	10800044 	addi	r2,r2,1
    35dc:	45000015 	stw	r20,0(r8)
    35e0:	44400115 	stw	r17,4(r8)
    35e4:	d8c02015 	stw	r3,128(sp)
    35e8:	d8801f15 	stw	r2,124(sp)
    35ec:	b0bff60e 	bge	r22,r2,35c8 <__alt_data_end+0xff0035c8>
    35f0:	d9801e04 	addi	r6,sp,120
    35f4:	b80b883a 	mov	r5,r23
    35f8:	9809883a 	mov	r4,r19
    35fc:	00094800 	call	9480 <__sprint_r>
    3600:	103d3a1e 	bne	r2,zero,2aec <__alt_data_end+0xff002aec>
    3604:	d8c02017 	ldw	r3,128(sp)
    3608:	d8801f17 	ldw	r2,124(sp)
    360c:	da000404 	addi	r8,sp,16
    3610:	003fee06 	br	35cc <__alt_data_end+0xff0035cc>
    3614:	d9403117 	ldw	r5,196(sp)
    3618:	d8802a17 	ldw	r2,168(sp)
    361c:	28adc83a 	sub	r22,r5,r2
    3620:	05be630e 	bge	zero,r22,2fb0 <__alt_data_end+0xff002fb0>
    3624:	07000404 	movi	fp,16
    3628:	d8801f17 	ldw	r2,124(sp)
    362c:	e5838f0e 	bge	fp,r22,446c <___vfprintf_internal_r+0x1d88>
    3630:	01400074 	movhi	r5,1
    3634:	29419784 	addi	r5,r5,1630
    3638:	dc403015 	stw	r17,192(sp)
    363c:	d9402b15 	stw	r5,172(sp)
    3640:	b023883a 	mov	r17,r22
    3644:	04c001c4 	movi	r19,7
    3648:	a82d883a 	mov	r22,r21
    364c:	902b883a 	mov	r21,r18
    3650:	8025883a 	mov	r18,r16
    3654:	dc002c17 	ldw	r16,176(sp)
    3658:	00000306 	br	3668 <___vfprintf_internal_r+0xf84>
    365c:	8c7ffc04 	addi	r17,r17,-16
    3660:	42000204 	addi	r8,r8,8
    3664:	e440110e 	bge	fp,r17,36ac <___vfprintf_internal_r+0xfc8>
    3668:	18c00404 	addi	r3,r3,16
    366c:	10800044 	addi	r2,r2,1
    3670:	45000015 	stw	r20,0(r8)
    3674:	47000115 	stw	fp,4(r8)
    3678:	d8c02015 	stw	r3,128(sp)
    367c:	d8801f15 	stw	r2,124(sp)
    3680:	98bff60e 	bge	r19,r2,365c <__alt_data_end+0xff00365c>
    3684:	d9801e04 	addi	r6,sp,120
    3688:	b80b883a 	mov	r5,r23
    368c:	8009883a 	mov	r4,r16
    3690:	00094800 	call	9480 <__sprint_r>
    3694:	103d151e 	bne	r2,zero,2aec <__alt_data_end+0xff002aec>
    3698:	8c7ffc04 	addi	r17,r17,-16
    369c:	d8c02017 	ldw	r3,128(sp)
    36a0:	d8801f17 	ldw	r2,124(sp)
    36a4:	da000404 	addi	r8,sp,16
    36a8:	e47fef16 	blt	fp,r17,3668 <__alt_data_end+0xff003668>
    36ac:	9021883a 	mov	r16,r18
    36b0:	a825883a 	mov	r18,r21
    36b4:	b02b883a 	mov	r21,r22
    36b8:	882d883a 	mov	r22,r17
    36bc:	dc403017 	ldw	r17,192(sp)
    36c0:	d9002b17 	ldw	r4,172(sp)
    36c4:	1d87883a 	add	r3,r3,r22
    36c8:	10800044 	addi	r2,r2,1
    36cc:	41000015 	stw	r4,0(r8)
    36d0:	45800115 	stw	r22,4(r8)
    36d4:	d8c02015 	stw	r3,128(sp)
    36d8:	d8801f15 	stw	r2,124(sp)
    36dc:	010001c4 	movi	r4,7
    36e0:	20818e16 	blt	r4,r2,3d1c <___vfprintf_internal_r+0x1638>
    36e4:	42000204 	addi	r8,r8,8
    36e8:	003e3106 	br	2fb0 <__alt_data_end+0xff002fb0>
    36ec:	d9403317 	ldw	r5,204(sp)
    36f0:	00800044 	movi	r2,1
    36f4:	18c00044 	addi	r3,r3,1
    36f8:	1141530e 	bge	r2,r5,3c48 <___vfprintf_internal_r+0x1564>
    36fc:	dc401f17 	ldw	r17,124(sp)
    3700:	00800044 	movi	r2,1
    3704:	40800115 	stw	r2,4(r8)
    3708:	8c400044 	addi	r17,r17,1
    370c:	44000015 	stw	r16,0(r8)
    3710:	d8c02015 	stw	r3,128(sp)
    3714:	dc401f15 	stw	r17,124(sp)
    3718:	008001c4 	movi	r2,7
    371c:	14416b16 	blt	r2,r17,3ccc <___vfprintf_internal_r+0x15e8>
    3720:	42000204 	addi	r8,r8,8
    3724:	d8803717 	ldw	r2,220(sp)
    3728:	d9003417 	ldw	r4,208(sp)
    372c:	8c400044 	addi	r17,r17,1
    3730:	10c7883a 	add	r3,r2,r3
    3734:	40800115 	stw	r2,4(r8)
    3738:	41000015 	stw	r4,0(r8)
    373c:	d8c02015 	stw	r3,128(sp)
    3740:	dc401f15 	stw	r17,124(sp)
    3744:	008001c4 	movi	r2,7
    3748:	14416916 	blt	r2,r17,3cf0 <___vfprintf_internal_r+0x160c>
    374c:	45800204 	addi	r22,r8,8
    3750:	d9003617 	ldw	r4,216(sp)
    3754:	d9403817 	ldw	r5,224(sp)
    3758:	000d883a 	mov	r6,zero
    375c:	000f883a 	mov	r7,zero
    3760:	d8c03c15 	stw	r3,240(sp)
    3764:	000d0f80 	call	d0f8 <__eqdf2>
    3768:	d8c03c17 	ldw	r3,240(sp)
    376c:	1000bc26 	beq	r2,zero,3a60 <___vfprintf_internal_r+0x137c>
    3770:	d9403317 	ldw	r5,204(sp)
    3774:	84000044 	addi	r16,r16,1
    3778:	8c400044 	addi	r17,r17,1
    377c:	28bfffc4 	addi	r2,r5,-1
    3780:	1887883a 	add	r3,r3,r2
    3784:	b0800115 	stw	r2,4(r22)
    3788:	b4000015 	stw	r16,0(r22)
    378c:	d8c02015 	stw	r3,128(sp)
    3790:	dc401f15 	stw	r17,124(sp)
    3794:	008001c4 	movi	r2,7
    3798:	14414316 	blt	r2,r17,3ca8 <___vfprintf_internal_r+0x15c4>
    379c:	b5800204 	addi	r22,r22,8
    37a0:	d9003a17 	ldw	r4,232(sp)
    37a4:	df0022c4 	addi	fp,sp,139
    37a8:	8c400044 	addi	r17,r17,1
    37ac:	20c7883a 	add	r3,r4,r3
    37b0:	b7000015 	stw	fp,0(r22)
    37b4:	b1000115 	stw	r4,4(r22)
    37b8:	d8c02015 	stw	r3,128(sp)
    37bc:	dc401f15 	stw	r17,124(sp)
    37c0:	008001c4 	movi	r2,7
    37c4:	14400e16 	blt	r2,r17,3800 <___vfprintf_internal_r+0x111c>
    37c8:	b2000204 	addi	r8,r22,8
    37cc:	003e3a06 	br	30b8 <__alt_data_end+0xff0030b8>
    37d0:	01000074 	movhi	r4,1
    37d4:	21019784 	addi	r4,r4,1630
    37d8:	d9002b15 	stw	r4,172(sp)
    37dc:	d9002b17 	ldw	r4,172(sp)
    37e0:	1c07883a 	add	r3,r3,r16
    37e4:	44000115 	stw	r16,4(r8)
    37e8:	41000015 	stw	r4,0(r8)
    37ec:	10800044 	addi	r2,r2,1
    37f0:	d8c02015 	stw	r3,128(sp)
    37f4:	d8801f15 	stw	r2,124(sp)
    37f8:	010001c4 	movi	r4,7
    37fc:	20be2d0e 	bge	r4,r2,30b4 <__alt_data_end+0xff0030b4>
    3800:	d9002c17 	ldw	r4,176(sp)
    3804:	d9801e04 	addi	r6,sp,120
    3808:	b80b883a 	mov	r5,r23
    380c:	00094800 	call	9480 <__sprint_r>
    3810:	103cb61e 	bne	r2,zero,2aec <__alt_data_end+0xff002aec>
    3814:	d8c02017 	ldw	r3,128(sp)
    3818:	da000404 	addi	r8,sp,16
    381c:	003e2606 	br	30b8 <__alt_data_end+0xff0030b8>
    3820:	d9002c17 	ldw	r4,176(sp)
    3824:	d9801e04 	addi	r6,sp,120
    3828:	b80b883a 	mov	r5,r23
    382c:	00094800 	call	9480 <__sprint_r>
    3830:	103e5d26 	beq	r2,zero,31a8 <__alt_data_end+0xff0031a8>
    3834:	003cad06 	br	2aec <__alt_data_end+0xff002aec>
    3838:	d9002c17 	ldw	r4,176(sp)
    383c:	d9801e04 	addi	r6,sp,120
    3840:	b80b883a 	mov	r5,r23
    3844:	00094800 	call	9480 <__sprint_r>
    3848:	103ca81e 	bne	r2,zero,2aec <__alt_data_end+0xff002aec>
    384c:	d8c02017 	ldw	r3,128(sp)
    3850:	da000404 	addi	r8,sp,16
    3854:	003e0b06 	br	3084 <__alt_data_end+0xff003084>
    3858:	d9002c17 	ldw	r4,176(sp)
    385c:	d9801e04 	addi	r6,sp,120
    3860:	b80b883a 	mov	r5,r23
    3864:	00094800 	call	9480 <__sprint_r>
    3868:	103ca01e 	bne	r2,zero,2aec <__alt_data_end+0xff002aec>
    386c:	d8c02017 	ldw	r3,128(sp)
    3870:	da000404 	addi	r8,sp,16
    3874:	003dbd06 	br	2f6c <__alt_data_end+0xff002f6c>
    3878:	d9002c17 	ldw	r4,176(sp)
    387c:	d9801e04 	addi	r6,sp,120
    3880:	b80b883a 	mov	r5,r23
    3884:	00094800 	call	9480 <__sprint_r>
    3888:	103c981e 	bne	r2,zero,2aec <__alt_data_end+0xff002aec>
    388c:	d8c02017 	ldw	r3,128(sp)
    3890:	da000404 	addi	r8,sp,16
    3894:	003dc306 	br	2fa4 <__alt_data_end+0xff002fa4>
    3898:	d8802917 	ldw	r2,164(sp)
    389c:	d8002785 	stb	zero,158(sp)
    38a0:	103f0616 	blt	r2,zero,34bc <__alt_data_end+0xff0034bc>
    38a4:	00ffdfc4 	movi	r3,-129
    38a8:	9d84b03a 	or	r2,r19,r22
    38ac:	90e4703a 	and	r18,r18,r3
    38b0:	103c6b26 	beq	r2,zero,2a60 <__alt_data_end+0xff002a60>
    38b4:	0039883a 	mov	fp,zero
    38b8:	003e7406 	br	328c <__alt_data_end+0xff00328c>
    38bc:	9080040c 	andi	r2,r18,16
    38c0:	1001b326 	beq	r2,zero,3f90 <___vfprintf_internal_r+0x18ac>
    38c4:	d9002d17 	ldw	r4,180(sp)
    38c8:	d9402917 	ldw	r5,164(sp)
    38cc:	d8002785 	stb	zero,158(sp)
    38d0:	20800104 	addi	r2,r4,4
    38d4:	24c00017 	ldw	r19,0(r4)
    38d8:	002d883a 	mov	r22,zero
    38dc:	2801b516 	blt	r5,zero,3fb4 <___vfprintf_internal_r+0x18d0>
    38e0:	00ffdfc4 	movi	r3,-129
    38e4:	d8802d15 	stw	r2,180(sp)
    38e8:	90e4703a 	and	r18,r18,r3
    38ec:	983d2726 	beq	r19,zero,2d8c <__alt_data_end+0xff002d8c>
    38f0:	0039883a 	mov	fp,zero
    38f4:	003d2a06 	br	2da0 <__alt_data_end+0xff002da0>
    38f8:	dc402617 	ldw	r17,152(sp)
    38fc:	0441d30e 	bge	zero,r17,404c <___vfprintf_internal_r+0x1968>
    3900:	dc403217 	ldw	r17,200(sp)
    3904:	d8803317 	ldw	r2,204(sp)
    3908:	1440010e 	bge	r2,r17,3910 <___vfprintf_internal_r+0x122c>
    390c:	1023883a 	mov	r17,r2
    3910:	04400a0e 	bge	zero,r17,393c <___vfprintf_internal_r+0x1258>
    3914:	d8801f17 	ldw	r2,124(sp)
    3918:	1c47883a 	add	r3,r3,r17
    391c:	44000015 	stw	r16,0(r8)
    3920:	10800044 	addi	r2,r2,1
    3924:	44400115 	stw	r17,4(r8)
    3928:	d8c02015 	stw	r3,128(sp)
    392c:	d8801f15 	stw	r2,124(sp)
    3930:	010001c4 	movi	r4,7
    3934:	20826516 	blt	r4,r2,42cc <___vfprintf_internal_r+0x1be8>
    3938:	42000204 	addi	r8,r8,8
    393c:	88026116 	blt	r17,zero,42c4 <___vfprintf_internal_r+0x1be0>
    3940:	d9003217 	ldw	r4,200(sp)
    3944:	2463c83a 	sub	r17,r4,r17
    3948:	04407b0e 	bge	zero,r17,3b38 <___vfprintf_internal_r+0x1454>
    394c:	05800404 	movi	r22,16
    3950:	d8801f17 	ldw	r2,124(sp)
    3954:	b4419d0e 	bge	r22,r17,3fcc <___vfprintf_internal_r+0x18e8>
    3958:	01000074 	movhi	r4,1
    395c:	21019784 	addi	r4,r4,1630
    3960:	d9002b15 	stw	r4,172(sp)
    3964:	070001c4 	movi	fp,7
    3968:	dcc02c17 	ldw	r19,176(sp)
    396c:	00000306 	br	397c <___vfprintf_internal_r+0x1298>
    3970:	42000204 	addi	r8,r8,8
    3974:	8c7ffc04 	addi	r17,r17,-16
    3978:	b441970e 	bge	r22,r17,3fd8 <___vfprintf_internal_r+0x18f4>
    397c:	18c00404 	addi	r3,r3,16
    3980:	10800044 	addi	r2,r2,1
    3984:	45000015 	stw	r20,0(r8)
    3988:	45800115 	stw	r22,4(r8)
    398c:	d8c02015 	stw	r3,128(sp)
    3990:	d8801f15 	stw	r2,124(sp)
    3994:	e0bff60e 	bge	fp,r2,3970 <__alt_data_end+0xff003970>
    3998:	d9801e04 	addi	r6,sp,120
    399c:	b80b883a 	mov	r5,r23
    39a0:	9809883a 	mov	r4,r19
    39a4:	00094800 	call	9480 <__sprint_r>
    39a8:	103c501e 	bne	r2,zero,2aec <__alt_data_end+0xff002aec>
    39ac:	d8c02017 	ldw	r3,128(sp)
    39b0:	d8801f17 	ldw	r2,124(sp)
    39b4:	da000404 	addi	r8,sp,16
    39b8:	003fee06 	br	3974 <__alt_data_end+0xff003974>
    39bc:	d9002c17 	ldw	r4,176(sp)
    39c0:	d9801e04 	addi	r6,sp,120
    39c4:	b80b883a 	mov	r5,r23
    39c8:	00094800 	call	9480 <__sprint_r>
    39cc:	103c471e 	bne	r2,zero,2aec <__alt_data_end+0xff002aec>
    39d0:	d8c02017 	ldw	r3,128(sp)
    39d4:	df002787 	ldb	fp,158(sp)
    39d8:	da000404 	addi	r8,sp,16
    39dc:	003d5606 	br	2f38 <__alt_data_end+0xff002f38>
    39e0:	9080040c 	andi	r2,r18,16
    39e4:	10016126 	beq	r2,zero,3f6c <___vfprintf_internal_r+0x1888>
    39e8:	d8802d17 	ldw	r2,180(sp)
    39ec:	14c00017 	ldw	r19,0(r2)
    39f0:	10800104 	addi	r2,r2,4
    39f4:	d8802d15 	stw	r2,180(sp)
    39f8:	982dd7fa 	srai	r22,r19,31
    39fc:	b005883a 	mov	r2,r22
    3a00:	003c8206 	br	2c0c <__alt_data_end+0xff002c0c>
    3a04:	9080040c 	andi	r2,r18,16
    3a08:	10003526 	beq	r2,zero,3ae0 <___vfprintf_internal_r+0x13fc>
    3a0c:	d9402d17 	ldw	r5,180(sp)
    3a10:	d8c02917 	ldw	r3,164(sp)
    3a14:	d8002785 	stb	zero,158(sp)
    3a18:	28800104 	addi	r2,r5,4
    3a1c:	2cc00017 	ldw	r19,0(r5)
    3a20:	002d883a 	mov	r22,zero
    3a24:	18003716 	blt	r3,zero,3b04 <___vfprintf_internal_r+0x1420>
    3a28:	00ffdfc4 	movi	r3,-129
    3a2c:	d8802d15 	stw	r2,180(sp)
    3a30:	90e4703a 	and	r18,r18,r3
    3a34:	0039883a 	mov	fp,zero
    3a38:	983df326 	beq	r19,zero,3208 <__alt_data_end+0xff003208>
    3a3c:	00800244 	movi	r2,9
    3a40:	14fc7b36 	bltu	r2,r19,2c30 <__alt_data_end+0xff002c30>
    3a44:	d8c02817 	ldw	r3,160(sp)
    3a48:	dc001dc4 	addi	r16,sp,119
    3a4c:	9cc00c04 	addi	r19,r19,48
    3a50:	1c07c83a 	sub	r3,r3,r16
    3a54:	dcc01dc5 	stb	r19,119(sp)
    3a58:	d8c02e15 	stw	r3,184(sp)
    3a5c:	003ce806 	br	2e00 <__alt_data_end+0xff002e00>
    3a60:	d8803317 	ldw	r2,204(sp)
    3a64:	143fffc4 	addi	r16,r2,-1
    3a68:	043f4d0e 	bge	zero,r16,37a0 <__alt_data_end+0xff0037a0>
    3a6c:	07000404 	movi	fp,16
    3a70:	e400810e 	bge	fp,r16,3c78 <___vfprintf_internal_r+0x1594>
    3a74:	01400074 	movhi	r5,1
    3a78:	29419784 	addi	r5,r5,1630
    3a7c:	d9402b15 	stw	r5,172(sp)
    3a80:	01c001c4 	movi	r7,7
    3a84:	dcc02c17 	ldw	r19,176(sp)
    3a88:	00000306 	br	3a98 <___vfprintf_internal_r+0x13b4>
    3a8c:	b5800204 	addi	r22,r22,8
    3a90:	843ffc04 	addi	r16,r16,-16
    3a94:	e4007b0e 	bge	fp,r16,3c84 <___vfprintf_internal_r+0x15a0>
    3a98:	18c00404 	addi	r3,r3,16
    3a9c:	8c400044 	addi	r17,r17,1
    3aa0:	b5000015 	stw	r20,0(r22)
    3aa4:	b7000115 	stw	fp,4(r22)
    3aa8:	d8c02015 	stw	r3,128(sp)
    3aac:	dc401f15 	stw	r17,124(sp)
    3ab0:	3c7ff60e 	bge	r7,r17,3a8c <__alt_data_end+0xff003a8c>
    3ab4:	d9801e04 	addi	r6,sp,120
    3ab8:	b80b883a 	mov	r5,r23
    3abc:	9809883a 	mov	r4,r19
    3ac0:	d9c03c15 	stw	r7,240(sp)
    3ac4:	00094800 	call	9480 <__sprint_r>
    3ac8:	d9c03c17 	ldw	r7,240(sp)
    3acc:	103c071e 	bne	r2,zero,2aec <__alt_data_end+0xff002aec>
    3ad0:	d8c02017 	ldw	r3,128(sp)
    3ad4:	dc401f17 	ldw	r17,124(sp)
    3ad8:	dd800404 	addi	r22,sp,16
    3adc:	003fec06 	br	3a90 <__alt_data_end+0xff003a90>
    3ae0:	9080100c 	andi	r2,r18,64
    3ae4:	d8002785 	stb	zero,158(sp)
    3ae8:	10010e26 	beq	r2,zero,3f24 <___vfprintf_internal_r+0x1840>
    3aec:	d9002d17 	ldw	r4,180(sp)
    3af0:	d9402917 	ldw	r5,164(sp)
    3af4:	002d883a 	mov	r22,zero
    3af8:	20800104 	addi	r2,r4,4
    3afc:	24c0000b 	ldhu	r19,0(r4)
    3b00:	283fc90e 	bge	r5,zero,3a28 <__alt_data_end+0xff003a28>
    3b04:	d8802d15 	stw	r2,180(sp)
    3b08:	0039883a 	mov	fp,zero
    3b0c:	9d84b03a 	or	r2,r19,r22
    3b10:	103c461e 	bne	r2,zero,2c2c <__alt_data_end+0xff002c2c>
    3b14:	00800044 	movi	r2,1
    3b18:	003e6c06 	br	34cc <__alt_data_end+0xff0034cc>
    3b1c:	d9002c17 	ldw	r4,176(sp)
    3b20:	d9801e04 	addi	r6,sp,120
    3b24:	b80b883a 	mov	r5,r23
    3b28:	00094800 	call	9480 <__sprint_r>
    3b2c:	103bef1e 	bne	r2,zero,2aec <__alt_data_end+0xff002aec>
    3b30:	d8c02017 	ldw	r3,128(sp)
    3b34:	da000404 	addi	r8,sp,16
    3b38:	d9003217 	ldw	r4,200(sp)
    3b3c:	d8802617 	ldw	r2,152(sp)
    3b40:	d9403317 	ldw	r5,204(sp)
    3b44:	8123883a 	add	r17,r16,r4
    3b48:	11400216 	blt	r2,r5,3b54 <___vfprintf_internal_r+0x1470>
    3b4c:	9100004c 	andi	r4,r18,1
    3b50:	20000d26 	beq	r4,zero,3b88 <___vfprintf_internal_r+0x14a4>
    3b54:	d9003717 	ldw	r4,220(sp)
    3b58:	d9403417 	ldw	r5,208(sp)
    3b5c:	1907883a 	add	r3,r3,r4
    3b60:	d9001f17 	ldw	r4,124(sp)
    3b64:	41400015 	stw	r5,0(r8)
    3b68:	d9403717 	ldw	r5,220(sp)
    3b6c:	21000044 	addi	r4,r4,1
    3b70:	d8c02015 	stw	r3,128(sp)
    3b74:	41400115 	stw	r5,4(r8)
    3b78:	d9001f15 	stw	r4,124(sp)
    3b7c:	014001c4 	movi	r5,7
    3b80:	2901e816 	blt	r5,r4,4324 <___vfprintf_internal_r+0x1c40>
    3b84:	42000204 	addi	r8,r8,8
    3b88:	d9003317 	ldw	r4,204(sp)
    3b8c:	8121883a 	add	r16,r16,r4
    3b90:	2085c83a 	sub	r2,r4,r2
    3b94:	8461c83a 	sub	r16,r16,r17
    3b98:	1400010e 	bge	r2,r16,3ba0 <___vfprintf_internal_r+0x14bc>
    3b9c:	1021883a 	mov	r16,r2
    3ba0:	04000a0e 	bge	zero,r16,3bcc <___vfprintf_internal_r+0x14e8>
    3ba4:	d9001f17 	ldw	r4,124(sp)
    3ba8:	1c07883a 	add	r3,r3,r16
